Disassembly Listing for Lab_5
Generated From:
D:/Cadence/SPB_Data/nehu/Lab05/Lab_5.X/dist/default/debug/Lab_5.X.debug.elf
Feb 3, 2022 12:26:49 PM

---  d:/cadence/spb_data/nehu/lab05/lab_5.x/linkedlisttest.c  -------------------------------------------
1:                   /* 
2:                    * File:   LinkedListTest.c
3:                    * Author: ????
4:                    *
5:                    * Created on January 31, 2022, 1:21 PM
6:                    */
7:                   
8:                   #include <stdio.h>
9:                   #include <stdlib.h>
10:                  #include "LinkedList.h"
11:                  #include "BOARD.h"
12:                  /*
13:                   * 
14:                   */
15:                  int counter1 = 0, counter2 = 0;
16:                  
17:                  int main(void)
18:                  {
19:                      printf("\n----------This is Neili Hu(1752639)'s test--------------\n");
20:                      printf("Test LinkedListNew()\n");
21:                      
22:                      char *test1_1 = "here",
23:                           *test1_2 = ""; 
24:                      ListItem *a1_1, *a1_2;
25:                      
26:                      printf("Testing case one......");
27:                      a1_1 = LinkedListNew(test1_1);
28:                      if (a1_1 != NULL && a1_1->data == test1_1 && a1_1->nextItem == NULL 
29:                                                                && a1_1->previousItem ==NULL) {
30:                          counter1++;
31:                          printf("Passed\n");
32:                      } else {
33:                          printf("Failed\n");
34:                      }
35:                      
36:                      printf("Testing case two......");
37:                      a1_2 = LinkedListNew(test1_2);
38:                      if (a1_2 != NULL && a1_2->data == test1_2 && a1_2->nextItem == NULL 
39:                                                                && a1_2->previousItem ==NULL) {
40:                          counter1++;
41:                          printf("Passed\n");
42:                      } else {
43:                          printf("Failed\n");
44:                      }
45:                      
46:                      if (counter1 == 2) {
47:                          counter2++;
48:                      }
49:                      printf("The passed number is %d/2\n", counter1);
50:                      counter1 = 0;
51:                      free(a1_1);
52:                      free(a1_2);
53:                  //--------------------------------------------------------------------------------------------------
54:                      printf("Test LinkedListCreateAfter()\n");
55:                      char *basic = "here",
56:                           *test2_2 = "123",
57:                           *test2_3 = "456",
58:                           *test2_4 = "789";
59:                      ListItem *a2_1, *a2_2, *a2_3, *a2_4;
60:                      
61:                      a2_1 = LinkedListNew(basic);
62:                  
63:                      
64:                      printf("Testing case one......");
65:                      a2_2 = LinkedListCreateAfter(a2_1, test2_2);
66:                      if (a2_1->nextItem == a2_2 && a2_2->previousItem == a2_1 && a2_2->data == test2_2
67:                                                                               && a2_2->nextItem == NULL) {
68:                          counter1++;
69:                          printf("Passed\n");
70:                      } else {
71:                          printf("Failed\n");
72:                      }
73:                      
74:                      printf("Testing case two......");
75:                      a2_3 = LinkedListCreateAfter(a2_1, test2_3);
76:                      if (a2_1->nextItem == a2_3 && a2_3->previousItem == a2_1 && a2_3->nextItem == a2_2 
77:                                                                               && a2_2->previousItem == a2_3) {
78:                          counter1++;
79:                          printf("Passed\n");
80:                      } else {
81:                          printf("Failed\n");
82:                      }
83:                      
84:                      printf("Testing case three......");
85:                      a2_3 = NULL;
86:                      a2_2->previousItem = NULL;
87:                      a2_1->nextItem = NULL;
88:                      a2_4 = LinkedListCreateAfter(a2_3, test2_4);
89:                      if (a2_4->nextItem == NULL && a2_4->previousItem == NULL && a2_4->data == test2_4) {
90:                          counter1++;
91:                          printf("Passed\n");
92:                      } else {
93:                          printf("Failed\n");
94:                      }
95:                      
96:                      if (counter1 == 3) {
97:                          counter2++;
98:                      }
99:                      printf("The passed number is %d/3\n", counter1);
100:                     counter1 = 0;
101:                     free(a2_1);
102:                     free(a2_2);
103:                     free(a2_3);
104:                     free(a2_4);
105:                 //--------------------------------------------------------------------------------------------------
106:                     printf("Test LinkedListRemove()\n");
107:                     char *test3_1 = "here",
108:                          *test3_2 = "123",
109:                          *test3_3 = "456",
110:                          *b3_1, *b3_2, *b3_3, *b3_4;
111:                     ListItem *a3_1, *a3_2, *a3_3, *a3_4, *a3_5, *a3_6;
112:                     
113:                     a3_1 = LinkedListNew(test3_1);
114:                     a3_2 = LinkedListCreateAfter(a3_1, test3_2);
115:                     a3_3 = LinkedListCreateAfter(a3_2, test3_3);
116:                     
117:                     printf("Testing case one......");
118:                     b3_1 = LinkedListRemove(a3_1);
119:                     if (a3_2->previousItem == NULL && b3_1 == test3_1) {
120:                         counter1++;
121:                         printf("Passed\n");
122:                     } else {
123:                         printf("Failed\n");
124:                     }
125:                     
126:                     printf("Testing case two......");
127:                     b3_2 = LinkedListRemove(a3_3);
128:                     if (a3_2->nextItem == NULL && b3_2 == test3_3) {
129:                         counter1++;
130:                         printf("Passed\n");
131:                     } else {
132:                         printf("Failed\n");
133:                     }
134:                     
135:                     a3_4 = LinkedListNew(test3_1);
136:                     a3_5 = LinkedListCreateAfter(a3_4, test3_2);
137:                     a3_6 = LinkedListCreateAfter(a3_5, test3_3);
138:                     
139:                     printf("Testing case three......");
140:                     b3_3 = LinkedListRemove(a3_5);
141:                     if (a3_4->nextItem == a3_6 && a3_6->previousItem == a3_4 && b3_3 == test3_2) {
142:                         counter1++;
143:                         printf("Passed\n");
144:                     } else {
145:                         printf("Failed\n");
146:                     }
147:                     
148:                     a3_6 = NULL;
149:                     printf("Testing case four......");
150:                     b3_4 = LinkedListRemove(a3_6);
151:                     if (b3_4 == NULL) {
152:                         counter1++;
153:                         printf("Passed\n");
154:                     } else {
155:                         printf("Failed\n");
156:                     }
157:                     
158:                     if (counter1 == 4) {
159:                         counter2++;
160:                     }
161:                     printf("The passed number is %d/4\n", counter1);
162:                     counter1 = 0;
163:                     free(a3_2);
164:                     free(a3_4);
165:                 //--------------------------------------------------------------------------------------------------
166:                     printf("Test LinkedListSize()\n");
167:                     char *test4_1 = "here",
168:                          *test4_2 = "123";
169:                     int  b4_1, b4_2;
170:                     ListItem *a4_1, *a4_2;
171:                     
172:                     a4_1 = LinkedListNew(test4_1);
173:                     a4_2 = LinkedListCreateAfter(a4_1, test4_2);
174:                     
175:                     printf("Testing case one......");
176:                     b4_1 = LinkedListSize(a4_2);
177:                     if (b4_1 == 2) {
178:                         counter1++;
179:                         printf("Passed\n");
180:                     } else {
181:                         printf("Failed\n");
182:                     }
183:                     
184:                     a4_2 = NULL;
185:                             
186:                     printf("Testing case two......");
187:                     b4_2 = LinkedListSize(a4_2);
188:                     if (b4_2 == 0) {
189:                         counter1++;
190:                         printf("Passed\n");
191:                     } else {
192:                         printf("Failed\n");
193:                     }
194:                     
195:                     if (counter1 == 2) {
196:                         counter2++;
197:                     }
198:                     printf("The passed number is %d/2\n", counter1);
199:                     counter1 = 0;
200:                     free(a4_1);
201:                     free(a4_2);
202:                 //--------------------------------------------------------------------------------------------------
203:                     printf("Test LinkedListGetFirst()\n");
204:                     char *test5_1 = "here",
205:                          *test5_2 = "123";
206:                     ListItem *a5_1, *a5_2, *copy, *b5_1, *b5_2, *b5_3;
207:                     
208:                     a5_1 = LinkedListNew(test5_1);
209:                     a5_2 = LinkedListCreateAfter(a5_1, test5_2);
210:                     
211:                     printf("Testing case one......");
212:                     copy = a5_2;
213:                     b5_1 = LinkedListGetFirst(a5_2);
214:                     if (b5_1 == a5_1 && a5_2 == copy) {
215:                         counter1++;
216:                         printf("Passed\n");
217:                     } else {
218:                         printf("Failed\n");
219:                     }
220:                     
221:                     a5_1 = NULL;
222:                     a5_2->previousItem = NULL;
223:                     copy = a5_2;
224:                     printf("Testing case two......");       
225:                     b5_2 = LinkedListGetFirst(a5_2);
226:                     if (b5_2 == a5_2 && a5_2 == copy) {
227:                         counter1++;
228:                         printf("Passed\n");
229:                     } else {
230:                         printf("Failed\n");
231:                     }
232:                     
233:                     a5_2 = NULL;
234:                     printf("Testing case three......"); 
235:                     b5_3 = LinkedListGetFirst(a5_2);
236:                     if (b5_3 == NULL) {
237:                         counter1++;
238:                         printf("Passed\n");
239:                     } else {
240:                         printf("Failed\n");
241:                     }
242:                     
243:                     if (counter1 == 3) {
244:                         counter2++;
245:                     }
246:                     printf("The passed number is %d/3\n", counter1);
247:                     counter1 = 0;
248:                     free(a5_1);
249:                     free(a5_2);
250:                     free(copy);
251:                     free(b5_1);
252:                     free(b5_2);
253:                     free(b5_3);
254:                 //--------------------------------------------------------------------------------------------------
255:                     printf("Test LinkedListGetLast()\n");
256:                     char *test6_1 = "here",
257:                          *test6_2 = "123";
258:                     ListItem *a6_1, *a6_2, *copy2, *b6_1, *b6_2, *b6_3;
259:                     
260:                     a6_1 = LinkedListNew(test6_1);
261:                     a6_2 = LinkedListCreateAfter(a6_1, test6_2);
262:                 
263:                     printf("Testing case one......");
264:                     copy2 = a6_1;
265:                     b6_1 = LinkedListGetLast(a6_1);
266:                     if (b6_1 == a6_2 && a6_1 == copy2) {
267:                         counter1++;
268:                         printf("Passed\n");
269:                     } else {
270:                         printf("Failed\n");
271:                     }
272:                     
273:                     a6_2 = NULL;
274:                     a6_1->nextItem = NULL;
275:                     copy2 = a6_1;
276:                     printf("Testing case two......");       
277:                     b6_2 = LinkedListGetLast(a6_1);
278:                     if (b6_2 == a6_1 && a6_1 == copy2) {
279:                         counter1++;
280:                         printf("Passed\n");
281:                     } else {
282:                         printf("Failed\n");
283:                     }
284:                     
285:                     a6_1 = NULL;
286:                     printf("Testing case three......"); 
287:                     b6_3 = LinkedListGetLast(a6_1);
288:                     if (b6_3 == NULL) {
289:                         counter1++;
290:                         printf("Passed\n");
291:                     } else {
292:                         printf("Failed\n");
293:                     }
294:                     
295:                     if (counter1 == 3) {
296:                         counter2++;
297:                     }
298:                     printf("The passed number is %d/3\n", counter1);
299:                     counter1 = 0;
300:                     free(a6_1);
301:                     free(a6_2);
302:                     free(copy2);
303:                     free(b6_1);
304:                     free(b6_2);
305:                     free(b6_3);
306:                 //--------------------------------------------------------------------------------------------------
307:                     printf("Test LinkedListSwapData()\n");
308:                     char *test7_1 = "here",
309:                          *test7_2 = "123",
310:                          *test7_3 = "456",
311:                          *test7_4 = NULL; 
312:                     int  b7_1, b7_2, b7_3;
313:                     ListItem *a7_1, *a7_2, *a7_3, *a7_4;
314:                     
315:                     a7_1 = LinkedListNew(test7_1);
316:                     a7_2 = LinkedListCreateAfter(a7_1, test7_2);
317:                     a7_3 = LinkedListCreateAfter(a7_2, test7_3);
318:                     a7_4 = LinkedListCreateAfter(a7_3, test7_4);
319:                     
320:                     printf("Testing case one......");
321:                     b7_1 = LinkedListSwapData(a7_1,a7_3);
322:                     if (b7_1 == SUCCESS && a7_1->data == test7_3 && a7_3->data == test7_1) {
323:                         counter1++;
324:                         printf("Passed\n");
325:                         LinkedListSwapData(a7_1,a7_3);
326:                     } else {
327:                         printf("Failed\n");
328:                     }
329:                     
330:                     printf("Testing case two......");
331:                     b7_2 = LinkedListSwapData(a7_2,a7_4);
332:                     if (b7_2 == SUCCESS && a7_2->data == test7_4 && a7_4->data == test7_2) {
333:                         counter1++;
334:                         printf("Passed\n");
335:                         LinkedListSwapData(a7_2,a7_4);
336:                     } else {
337:                         printf("Failed\n");
338:                     }
339:                     
340:                     a7_2 = NULL;
341:                     printf("Testing case three......");
342:                     b7_3 = LinkedListSwapData(a7_2,a7_4); 
343:                     if (b7_3 == STANDARD_ERROR) {
344:                         counter1++;
345:                         printf("Passed\n");
346:                         LinkedListSwapData(a7_2,a7_4);
347:                     } else {
348:                         printf("Failed\n");
349:                     }
350:                     
351:                     if (counter1 == 3) {
352:                         counter2++;
353:                     }
354:                     printf("The passed number is %d/3\n", counter1);
355:                     counter1 = 0;
356:                     free(a7_1);
357:                     free(a7_2);
358:                     free(a7_3);
359:                     free(a7_4);
360:                 //--------------------------------------------------------------------------------------------------
361:                     printf("Test LinkedListPrint()\n");
362:                     char *test8_1 = "here",
363:                          *test8_2 = NULL,
364:                          *test8_3 = "123"; 
365:                     int  b8_1, b8_2;
366:                     ListItem *a8_1, *a8_2, *a8_3;
367:                     
368:                     a8_1 = LinkedListNew(test8_1);
369:                     printf("%d", LinkedListSize(a8_1));
370:                     a8_2 = LinkedListCreateAfter(a8_1, test8_2);
371:                     printf("%d", LinkedListSize(a8_1));
372:                     a8_3 = LinkedListCreateAfter(a8_2, test8_3);
373:                     printf("%d", LinkedListSize(a8_1));
374:                     
375:                     printf("Testing case one......\n");
376:                     b8_1 = LinkedListPrint(a8_2);
377:                     if (b8_1 == SUCCESS) {
378:                         counter1++;
379:                         printf("Passed\n");
380:                     } else {
381:                         printf("Failed\n");
382:                     }
383:                     
384:                     a8_2 = NULL;
385:                     
386:                     printf("Testing case two......\n");
387:                     b8_2 = LinkedListPrint(a8_2);
388:                     if (b8_2 == STANDARD_ERROR) {
389:                         counter1++;
390:                         printf("Passed\n");
391:                     } else {
392:                         printf("Failed\n");
393:                     }
394:                     
395:                     if (counter1 == 2) {
396:                         counter2++;
397:                     }
398:                     printf("The passed number is %d/2\n", counter1);
399:                     printf("-------The total passed test is %d/8--------------", counter2);
400:                     free(a8_1);
401:                     free(a8_2);
402:                     free(a8_3);
403:                     
404:                     return (0);
405:                 }
-----*  Optimizer-Generated Procedural Abstractions  *----------------------------------------------
9D000000  27BDFEE0   ADDIU SP, SP, -288
9D000004  AFBF011C   SW RA, 284(SP)
9D000008  AFBE0118   SW FP, 280(SP)
9D00000C  03A0F025   OR FP, SP, ZERO
9D000010  3C029D00   LUI V0, -25344
9D000014  24442C38   ADDIU A0, V0, 11320
9D000018  0F40128C   JAL puts
9D00001C  00000000   NOP
9D000020  3C029D00   LUI V0, -25344
9D000024  24442C74   ADDIU A0, V0, 11380
9D000028  0F40128C   JAL puts
9D00002C  00000000   NOP
9D000030  3C029D00   LUI V0, -25344
9D000034  24422C8C   ADDIU V0, V0, 11404
9D000038  AFC20010   SW V0, 16(FP)
9D00003C  3C029D00   LUI V0, -25344
9D000040  24422C94   ADDIU V0, V0, 11412
9D000044  AFC20014   SW V0, 20(FP)
9D000048  3C029D00   LUI V0, -25344
9D00004C  24442C98   ADDIU A0, V0, 11416
9D000050  0F401308   JAL __wrap_printf, _printf_cdnopuxX, _dprintf_cdnopuxX
9D000054  00000000   NOP
9D000058  8FC40010   LW A0, 16(FP)
9D00005C  0F40046E   JAL LinkedListNew
9D000060  00000000   NOP
9D000064  AFC20018   SW V0, 24(FP)
9D000068  8FC20018   LW V0, 24(FP)
9D00006C  10400017   BEQ V0, ZERO, 0x9D0000CC
9D000070  00000000   NOP
9D000074  8FC20018   LW V0, 24(FP)
9D000078  8C420008   LW V0, 8(V0)
9D00007C  8FC30010   LW V1, 16(FP)
9D000080  14620012   BNE V1, V0, 0x9D0000CC
9D000084  00000000   NOP
9D000088  8FC20018   LW V0, 24(FP)
9D00008C  8C420004   LW V0, 4(V0)
9D000090  1440000E   BNE V0, ZERO, 0x9D0000CC
9D000094  00000000   NOP
9D000098  8FC20018   LW V0, 24(FP)
9D00009C  8C420000   LW V0, 0(V0)
9D0000A0  1440000A   BNE V0, ZERO, 0x9D0000CC
9D0000A4  00000000   NOP
9D0000A8  8F828014   LW V0, -32748(GP)
9D0000AC  24420001   ADDIU V0, V0, 1
9D0000B0  AF828014   SW V0, -32748(GP)
9D0000B4  3C029D00   LUI V0, -25344
9D0000B8  24442CB0   ADDIU A0, V0, 11440
9D0000BC  0F40128C   JAL puts
9D0000C0  00000000   NOP
9D0000C4  10000005   BEQ ZERO, ZERO, 0x9D0000DC
9D0000C8  00000000   NOP
9D0000CC  3C029D00   LUI V0, -25344
9D0000D0  24442CB8   ADDIU A0, V0, 11448
9D0000D4  0F40128C   JAL puts
9D0000D8  00000000   NOP
9D0000DC  3C029D00   LUI V0, -25344
9D0000E0  24442CC0   ADDIU A0, V0, 11456
9D0000E4  0F401308   JAL __wrap_printf, _printf_cdnopuxX, _dprintf_cdnopuxX
9D0000E8  00000000   NOP
9D0000EC  8FC40014   LW A0, 20(FP)
9D0000F0  0F40046E   JAL LinkedListNew
9D0000F4  00000000   NOP
9D0000F8  AFC2001C   SW V0, 28(FP)
9D0000FC  8FC2001C   LW V0, 28(FP)
9D000100  10400017   BEQ V0, ZERO, 0x9D000160
9D000104  00000000   NOP
9D000108  8FC2001C   LW V0, 28(FP)
9D00010C  8C420008   LW V0, 8(V0)
9D000110  8FC30014   LW V1, 20(FP)
9D000114  14620012   BNE V1, V0, 0x9D000160
9D000118  00000000   NOP
9D00011C  8FC2001C   LW V0, 28(FP)
9D000120  8C420004   LW V0, 4(V0)
9D000124  1440000E   BNE V0, ZERO, 0x9D000160
9D000128  00000000   NOP
9D00012C  8FC2001C   LW V0, 28(FP)
9D000130  8C420000   LW V0, 0(V0)
9D000134  1440000A   BNE V0, ZERO, 0x9D000160
9D000138  00000000   NOP
9D00013C  8F828014   LW V0, -32748(GP)
9D000140  24420001   ADDIU V0, V0, 1
9D000144  AF828014   SW V0, -32748(GP)
9D000148  3C029D00   LUI V0, -25344
9D00014C  24442CB0   ADDIU A0, V0, 11440
9D000150  0F40128C   JAL puts
9D000154  00000000   NOP
9D000158  10000005   BEQ ZERO, ZERO, 0x9D000170
9D00015C  00000000   NOP
9D000160  3C029D00   LUI V0, -25344
9D000164  24442CB8   ADDIU A0, V0, 11448
9D000168  0F40128C   JAL puts
9D00016C  00000000   NOP
9D000170  8F838014   LW V1, -32748(GP)
9D000174  24020002   ADDIU V0, ZERO, 2
9D000178  14620004   BNE V1, V0, 0x9D00018C
9D00017C  00000000   NOP
9D000180  8F828018   LW V0, -32744(GP)
9D000184  24420001   ADDIU V0, V0, 1
9D000188  AF828018   SW V0, -32744(GP)
9D00018C  8F828014   LW V0, -32748(GP)
9D000190  00402825   OR A1, V0, ZERO
9D000194  3C029D00   LUI V0, -25344
9D000198  24442CD8   ADDIU A0, V0, 11480
9D00019C  0F401308   JAL __wrap_printf, _printf_cdnopuxX, _dprintf_cdnopuxX
9D0001A0  00000000   NOP
9D0001A4  AF808014   SW ZERO, -32748(GP)
9D0001A8  8FC40018   LW A0, 24(FP)
9D0001AC  0F400C1C   JAL free
9D0001B0  00000000   NOP
9D0001B4  8FC4001C   LW A0, 28(FP)
9D0001B8  0F400C1C   JAL free
9D0001BC  00000000   NOP
9D0001C0  3C029D00   LUI V0, -25344
9D0001C4  24442CF4   ADDIU A0, V0, 11508
9D0001C8  0F40128C   JAL puts
9D0001CC  00000000   NOP
9D0001D0  3C029D00   LUI V0, -25344
9D0001D4  24422C8C   ADDIU V0, V0, 11404
9D0001D8  AFC20020   SW V0, 32(FP)
9D0001DC  3C029D00   LUI V0, -25344
9D0001E0  24422D14   ADDIU V0, V0, 11540
9D0001E4  AFC20024   SW V0, 36(FP)
9D0001E8  3C029D00   LUI V0, -25344
9D0001EC  24422D18   ADDIU V0, V0, 11544
9D0001F0  AFC20028   SW V0, 40(FP)
9D0001F4  3C029D00   LUI V0, -25344
9D0001F8  24422D1C   ADDIU V0, V0, 11548
9D0001FC  AFC2002C   SW V0, 44(FP)
9D000200  8FC40020   LW A0, 32(FP)
9D000204  0F40046E   JAL LinkedListNew
9D000208  00000000   NOP
9D00020C  AFC20030   SW V0, 48(FP)
9D000210  3C029D00   LUI V0, -25344
9D000214  24442C98   ADDIU A0, V0, 11416
9D000218  0F401308   JAL __wrap_printf, _printf_cdnopuxX, _dprintf_cdnopuxX
9D00021C  00000000   NOP
9D000220  8FC50024   LW A1, 36(FP)
9D000224  8FC40030   LW A0, 48(FP)
9D000228  0F40048B   JAL LinkedListCreateAfter
9D00022C  00000000   NOP
9D000230  AFC20034   SW V0, 52(FP)
9D000234  8FC20030   LW V0, 48(FP)
9D000238  8C420004   LW V0, 4(V0)
9D00023C  8FC30034   LW V1, 52(FP)
9D000240  14620018   BNE V1, V0, 0x9D0002A4
9D000244  00000000   NOP
9D000248  8FC20034   LW V0, 52(FP)
9D00024C  8C420000   LW V0, 0(V0)
9D000250  8FC30030   LW V1, 48(FP)
9D000254  14620013   BNE V1, V0, 0x9D0002A4
9D000258  00000000   NOP
9D00025C  8FC20034   LW V0, 52(FP)
9D000260  8C420008   LW V0, 8(V0)
9D000264  8FC30024   LW V1, 36(FP)
9D000268  1462000E   BNE V1, V0, 0x9D0002A4
9D00026C  00000000   NOP
9D000270  8FC20034   LW V0, 52(FP)
9D000274  8C420004   LW V0, 4(V0)
9D000278  1440000A   BNE V0, ZERO, 0x9D0002A4
9D00027C  00000000   NOP
9D000280  8F828014   LW V0, -32748(GP)
9D000284  24420001   ADDIU V0, V0, 1
9D000288  AF828014   SW V0, -32748(GP)
9D00028C  3C029D00   LUI V0, -25344
9D000290  24442CB0   ADDIU A0, V0, 11440
9D000294  0F40128C   JAL puts
9D000298  00000000   NOP
9D00029C  10000005   BEQ ZERO, ZERO, 0x9D0002B4
9D0002A0  00000000   NOP
9D0002A4  3C029D00   LUI V0, -25344
9D0002A8  24442CB8   ADDIU A0, V0, 11448
9D0002AC  0F40128C   JAL puts
9D0002B0  00000000   NOP
9D0002B4  3C029D00   LUI V0, -25344
9D0002B8  24442CC0   ADDIU A0, V0, 11456
9D0002BC  0F401308   JAL __wrap_printf, _printf_cdnopuxX, _dprintf_cdnopuxX
9D0002C0  00000000   NOP
9D0002C4  8FC50028   LW A1, 40(FP)
9D0002C8  8FC40030   LW A0, 48(FP)
9D0002CC  0F40048B   JAL LinkedListCreateAfter
9D0002D0  00000000   NOP
9D0002D4  AFC20038   SW V0, 56(FP)
9D0002D8  8FC20030   LW V0, 48(FP)
9D0002DC  8C420004   LW V0, 4(V0)
9D0002E0  8FC30038   LW V1, 56(FP)
9D0002E4  14620019   BNE V1, V0, 0x9D00034C
9D0002E8  00000000   NOP
9D0002EC  8FC20038   LW V0, 56(FP)
9D0002F0  8C420000   LW V0, 0(V0)
9D0002F4  8FC30030   LW V1, 48(FP)
9D0002F8  14620014   BNE V1, V0, 0x9D00034C
9D0002FC  00000000   NOP
9D000300  8FC20038   LW V0, 56(FP)
9D000304  8C420004   LW V0, 4(V0)
9D000308  8FC30034   LW V1, 52(FP)
9D00030C  1462000F   BNE V1, V0, 0x9D00034C
9D000310  00000000   NOP
9D000314  8FC20034   LW V0, 52(FP)
9D000318  8C420000   LW V0, 0(V0)
9D00031C  8FC30038   LW V1, 56(FP)
9D000320  1462000A   BNE V1, V0, 0x9D00034C
9D000324  00000000   NOP
9D000328  8F828014   LW V0, -32748(GP)
9D00032C  24420001   ADDIU V0, V0, 1
9D000330  AF828014   SW V0, -32748(GP)
9D000334  3C029D00   LUI V0, -25344
9D000338  24442CB0   ADDIU A0, V0, 11440
9D00033C  0F40128C   JAL puts
9D000340  00000000   NOP
9D000344  10000005   BEQ ZERO, ZERO, 0x9D00035C
9D000348  00000000   NOP
9D00034C  3C029D00   LUI V0, -25344
9D000350  24442CB8   ADDIU A0, V0, 11448
9D000354  0F40128C   JAL puts
9D000358  00000000   NOP
9D00035C  3C029D00   LUI V0, -25344
9D000360  24442D20   ADDIU A0, V0, 11552
9D000364  0F401308   JAL __wrap_printf, _printf_cdnopuxX, _dprintf_cdnopuxX
9D000368  00000000   NOP
9D00036C  AFC00038   SW ZERO, 56(FP)
9D000370  8FC20034   LW V0, 52(FP)
9D000374  AC400000   SW ZERO, 0(V0)
9D000378  8FC20030   LW V0, 48(FP)
9D00037C  AC400004   SW ZERO, 4(V0)
9D000380  8FC5002C   LW A1, 44(FP)
9D000384  8FC40038   LW A0, 56(FP)
9D000388  0F40048B   JAL LinkedListCreateAfter
9D00038C  00000000   NOP
9D000390  AFC2003C   SW V0, 60(FP)
9D000394  8FC2003C   LW V0, 60(FP)
9D000398  8C420004   LW V0, 4(V0)
9D00039C  14400013   BNE V0, ZERO, 0x9D0003EC
9D0003A0  00000000   NOP
9D0003A4  8FC2003C   LW V0, 60(FP)
9D0003A8  8C420000   LW V0, 0(V0)
9D0003AC  1440000F   BNE V0, ZERO, 0x9D0003EC
9D0003B0  00000000   NOP
9D0003B4  8FC2003C   LW V0, 60(FP)
9D0003B8  8C420008   LW V0, 8(V0)
9D0003BC  8FC3002C   LW V1, 44(FP)
9D0003C0  1462000A   BNE V1, V0, 0x9D0003EC
9D0003C4  00000000   NOP
9D0003C8  8F828014   LW V0, -32748(GP)
9D0003CC  24420001   ADDIU V0, V0, 1
9D0003D0  AF828014   SW V0, -32748(GP)
9D0003D4  3C029D00   LUI V0, -25344
9D0003D8  24442CB0   ADDIU A0, V0, 11440
9D0003DC  0F40128C   JAL puts
9D0003E0  00000000   NOP
9D0003E4  10000005   BEQ ZERO, ZERO, 0x9D0003FC
9D0003E8  00000000   NOP
9D0003EC  3C029D00   LUI V0, -25344
9D0003F0  24442CB8   ADDIU A0, V0, 11448
9D0003F4  0F40128C   JAL puts
9D0003F8  00000000   NOP
9D0003FC  8F838014   LW V1, -32748(GP)
9D000400  24020003   ADDIU V0, ZERO, 3
9D000404  14620004   BNE V1, V0, 0x9D000418
9D000408  00000000   NOP
9D00040C  8F828018   LW V0, -32744(GP)
9D000410  24420001   ADDIU V0, V0, 1
9D000414  AF828018   SW V0, -32744(GP)
9D000418  8F828014   LW V0, -32748(GP)
9D00041C  00402825   OR A1, V0, ZERO
9D000420  3C029D00   LUI V0, -25344
9D000424  24442D3C   ADDIU A0, V0, 11580
9D000428  0F401308   JAL __wrap_printf, _printf_cdnopuxX, _dprintf_cdnopuxX
9D00042C  00000000   NOP
9D000430  AF808014   SW ZERO, -32748(GP)
9D000434  8FC40030   LW A0, 48(FP)
9D000438  0F400C1C   JAL free
9D00043C  00000000   NOP
9D000440  8FC40034   LW A0, 52(FP)
9D000444  0F400C1C   JAL free
9D000448  00000000   NOP
9D00044C  8FC40038   LW A0, 56(FP)
9D000450  0F400C1C   JAL free
9D000454  00000000   NOP
9D000458  8FC4003C   LW A0, 60(FP)
9D00045C  0F400C1C   JAL free
9D000460  00000000   NOP
9D000464  3C029D00   LUI V0, -25344
9D000468  24442D58   ADDIU A0, V0, 11608
9D00046C  0F40128C   JAL puts
9D000470  00000000   NOP
9D000474  3C029D00   LUI V0, -25344
9D000478  24422C8C   ADDIU V0, V0, 11404
9D00047C  AFC20040   SW V0, 64(FP)
9D000480  3C029D00   LUI V0, -25344
9D000484  24422D14   ADDIU V0, V0, 11540
9D000488  AFC20044   SW V0, 68(FP)
9D00048C  3C029D00   LUI V0, -25344
9D000490  24422D18   ADDIU V0, V0, 11544
9D000494  AFC20048   SW V0, 72(FP)
9D000498  8FC40040   LW A0, 64(FP)
9D00049C  0F40046E   JAL LinkedListNew
9D0004A0  00000000   NOP
9D0004A4  AFC2004C   SW V0, 76(FP)
9D0004A8  8FC50044   LW A1, 68(FP)
9D0004AC  8FC4004C   LW A0, 76(FP)
9D0004B0  0F40048B   JAL LinkedListCreateAfter
9D0004B4  00000000   NOP
9D0004B8  AFC20050   SW V0, 80(FP)
9D0004BC  8FC50048   LW A1, 72(FP)
9D0004C0  8FC40050   LW A0, 80(FP)
9D0004C4  0F40048B   JAL LinkedListCreateAfter
9D0004C8  00000000   NOP
9D0004CC  AFC20054   SW V0, 84(FP)
9D0004D0  3C029D00   LUI V0, -25344
9D0004D4  24442C98   ADDIU A0, V0, 11416
9D0004D8  0F401308   JAL __wrap_printf, _printf_cdnopuxX, _dprintf_cdnopuxX
9D0004DC  00000000   NOP
9D0004E0  8FC4004C   LW A0, 76(FP)
9D0004E4  0F4004D7   JAL LinkedListRemove
9D0004E8  00000000   NOP
9D0004EC  AFC20058   SW V0, 88(FP)
9D0004F0  8FC20050   LW V0, 80(FP)
9D0004F4  8C420000   LW V0, 0(V0)
9D0004F8  1440000E   BNE V0, ZERO, 0x9D000534
9D0004FC  00000000   NOP
9D000500  8FC30058   LW V1, 88(FP)
9D000504  8FC20040   LW V0, 64(FP)
9D000508  1462000A   BNE V1, V0, 0x9D000534
9D00050C  00000000   NOP
9D000510  8F828014   LW V0, -32748(GP)
9D000514  24420001   ADDIU V0, V0, 1
9D000518  AF828014   SW V0, -32748(GP)
9D00051C  3C029D00   LUI V0, -25344
9D000520  24442CB0   ADDIU A0, V0, 11440
9D000524  0F40128C   JAL puts
9D000528  00000000   NOP
9D00052C  10000005   BEQ ZERO, ZERO, 0x9D000544
9D000530  00000000   NOP
9D000534  3C029D00   LUI V0, -25344
9D000538  24442CB8   ADDIU A0, V0, 11448
9D00053C  0F40128C   JAL puts
9D000540  00000000   NOP
9D000544  3C029D00   LUI V0, -25344
9D000548  24442CC0   ADDIU A0, V0, 11456
9D00054C  0F401308   JAL __wrap_printf, _printf_cdnopuxX, _dprintf_cdnopuxX
9D000550  00000000   NOP
9D000554  8FC40054   LW A0, 84(FP)
9D000558  0F4004D7   JAL LinkedListRemove
9D00055C  00000000   NOP
9D000560  AFC2005C   SW V0, 92(FP)
9D000564  8FC20050   LW V0, 80(FP)
9D000568  8C420004   LW V0, 4(V0)
9D00056C  1440000E   BNE V0, ZERO, 0x9D0005A8
9D000570  00000000   NOP
9D000574  8FC3005C   LW V1, 92(FP)
9D000578  8FC20048   LW V0, 72(FP)
9D00057C  1462000A   BNE V1, V0, 0x9D0005A8
9D000580  00000000   NOP
9D000584  8F828014   LW V0, -32748(GP)
9D000588  24420001   ADDIU V0, V0, 1
9D00058C  AF828014   SW V0, -32748(GP)
9D000590  3C029D00   LUI V0, -25344
9D000594  24442CB0   ADDIU A0, V0, 11440
9D000598  0F40128C   JAL puts
9D00059C  00000000   NOP
9D0005A0  10000005   BEQ ZERO, ZERO, 0x9D0005B8
9D0005A4  00000000   NOP
9D0005A8  3C029D00   LUI V0, -25344
9D0005AC  24442CB8   ADDIU A0, V0, 11448
9D0005B0  0F40128C   JAL puts
9D0005B4  00000000   NOP
9D0005B8  8FC40040   LW A0, 64(FP)
9D0005BC  0F40046E   JAL LinkedListNew
9D0005C0  00000000   NOP
9D0005C4  AFC20060   SW V0, 96(FP)
9D0005C8  8FC50044   LW A1, 68(FP)
9D0005CC  8FC40060   LW A0, 96(FP)
9D0005D0  0F40048B   JAL LinkedListCreateAfter
9D0005D4  00000000   NOP
9D0005D8  AFC20064   SW V0, 100(FP)
9D0005DC  8FC50048   LW A1, 72(FP)
9D0005E0  8FC40064   LW A0, 100(FP)
9D0005E4  0F40048B   JAL LinkedListCreateAfter
9D0005E8  00000000   NOP
9D0005EC  AFC20068   SW V0, 104(FP)
9D0005F0  3C029D00   LUI V0, -25344
9D0005F4  24442D20   ADDIU A0, V0, 11552
9D0005F8  0F401308   JAL __wrap_printf, _printf_cdnopuxX, _dprintf_cdnopuxX
9D0005FC  00000000   NOP
9D000600  8FC40064   LW A0, 100(FP)
9D000604  0F4004D7   JAL LinkedListRemove
9D000608  00000000   NOP
9D00060C  AFC2006C   SW V0, 108(FP)
9D000610  8FC20060   LW V0, 96(FP)
9D000614  8C420004   LW V0, 4(V0)
9D000618  8FC30068   LW V1, 104(FP)
9D00061C  14620013   BNE V1, V0, 0x9D00066C
9D000620  00000000   NOP
9D000624  8FC20068   LW V0, 104(FP)
9D000628  8C420000   LW V0, 0(V0)
9D00062C  8FC30060   LW V1, 96(FP)
9D000630  1462000E   BNE V1, V0, 0x9D00066C
9D000634  00000000   NOP
9D000638  8FC3006C   LW V1, 108(FP)
9D00063C  8FC20044   LW V0, 68(FP)
9D000640  1462000A   BNE V1, V0, 0x9D00066C
9D000644  00000000   NOP
9D000648  8F828014   LW V0, -32748(GP)
9D00064C  24420001   ADDIU V0, V0, 1
9D000650  AF828014   SW V0, -32748(GP)
9D000654  3C029D00   LUI V0, -25344
9D000658  24442CB0   ADDIU A0, V0, 11440
9D00065C  0F40128C   JAL puts
9D000660  00000000   NOP
9D000664  10000005   BEQ ZERO, ZERO, 0x9D00067C
9D000668  00000000   NOP
9D00066C  3C029D00   LUI V0, -25344
9D000670  24442CB8   ADDIU A0, V0, 11448
9D000674  0F40128C   JAL puts
9D000678  00000000   NOP
9D00067C  AFC00068   SW ZERO, 104(FP)
9D000680  3C029D00   LUI V0, -25344
9D000684  24442D70   ADDIU A0, V0, 11632
9D000688  0F401308   JAL __wrap_printf, _printf_cdnopuxX, _dprintf_cdnopuxX
9D00068C  00000000   NOP
9D000690  8FC40068   LW A0, 104(FP)
9D000694  0F4004D7   JAL LinkedListRemove
9D000698  00000000   NOP
9D00069C  AFC20070   SW V0, 112(FP)
9D0006A0  8FC20070   LW V0, 112(FP)
9D0006A4  1440000A   BNE V0, ZERO, 0x9D0006D0
9D0006A8  00000000   NOP
9D0006AC  8F828014   LW V0, -32748(GP)
9D0006B0  24420001   ADDIU V0, V0, 1
9D0006B4  AF828014   SW V0, -32748(GP)
9D0006B8  3C029D00   LUI V0, -25344
9D0006BC  24442CB0   ADDIU A0, V0, 11440
9D0006C0  0F40128C   JAL puts
9D0006C4  00000000   NOP
9D0006C8  10000005   BEQ ZERO, ZERO, 0x9D0006E0
9D0006CC  00000000   NOP
9D0006D0  3C029D00   LUI V0, -25344
9D0006D4  24442CB8   ADDIU A0, V0, 11448
9D0006D8  0F40128C   JAL puts
9D0006DC  00000000   NOP
9D0006E0  8F838014   LW V1, -32748(GP)
9D0006E4  24020004   ADDIU V0, ZERO, 4
9D0006E8  14620004   BNE V1, V0, 0x9D0006FC
9D0006EC  00000000   NOP
9D0006F0  8F828018   LW V0, -32744(GP)
9D0006F4  24420001   ADDIU V0, V0, 1
9D0006F8  AF828018   SW V0, -32744(GP)
9D0006FC  8F828014   LW V0, -32748(GP)
9D000700  00402825   OR A1, V0, ZERO
9D000704  3C029D00   LUI V0, -25344
9D000708  24442D88   ADDIU A0, V0, 11656
9D00070C  0F401308   JAL __wrap_printf, _printf_cdnopuxX, _dprintf_cdnopuxX
9D000710  00000000   NOP
9D000714  AF808014   SW ZERO, -32748(GP)
9D000718  8FC40050   LW A0, 80(FP)
9D00071C  0F400C1C   JAL free
9D000720  00000000   NOP
9D000724  8FC40060   LW A0, 96(FP)
9D000728  0F400C1C   JAL free
9D00072C  00000000   NOP
9D000730  3C029D00   LUI V0, -25344
9D000734  24442DA4   ADDIU A0, V0, 11684
9D000738  0F40128C   JAL puts
9D00073C  00000000   NOP
9D000740  3C029D00   LUI V0, -25344
9D000744  24422C8C   ADDIU V0, V0, 11404
9D000748  AFC20074   SW V0, 116(FP)
9D00074C  3C029D00   LUI V0, -25344
9D000750  24422D14   ADDIU V0, V0, 11540
9D000754  AFC20078   SW V0, 120(FP)
9D000758  8FC40074   LW A0, 116(FP)
9D00075C  0F40046E   JAL LinkedListNew
9D000760  00000000   NOP
9D000764  AFC2007C   SW V0, 124(FP)
9D000768  8FC50078   LW A1, 120(FP)
9D00076C  8FC4007C   LW A0, 124(FP)
9D000770  0F40048B   JAL LinkedListCreateAfter
9D000774  00000000   NOP
9D000778  AFC20080   SW V0, 128(FP)
9D00077C  3C029D00   LUI V0, -25344
9D000780  24442C98   ADDIU A0, V0, 11416
9D000784  0F401308   JAL __wrap_printf, _printf_cdnopuxX, _dprintf_cdnopuxX
9D000788  00000000   NOP
9D00078C  8FC40080   LW A0, 128(FP)
9D000790  0F40050F   JAL LinkedListSize
9D000794  00000000   NOP
9D000798  AFC20084   SW V0, 132(FP)
9D00079C  8FC30084   LW V1, 132(FP)
9D0007A0  24020002   ADDIU V0, ZERO, 2
9D0007A4  1462000A   BNE V1, V0, 0x9D0007D0
9D0007A8  00000000   NOP
9D0007AC  8F828014   LW V0, -32748(GP)
9D0007B0  24420001   ADDIU V0, V0, 1
9D0007B4  AF828014   SW V0, -32748(GP)
9D0007B8  3C029D00   LUI V0, -25344
9D0007BC  24442CB0   ADDIU A0, V0, 11440
9D0007C0  0F40128C   JAL puts
9D0007C4  00000000   NOP
9D0007C8  10000005   BEQ ZERO, ZERO, 0x9D0007E0
9D0007CC  00000000   NOP
9D0007D0  3C029D00   LUI V0, -25344
9D0007D4  24442CB8   ADDIU A0, V0, 11448
9D0007D8  0F40128C   JAL puts
9D0007DC  00000000   NOP
9D0007E0  AFC00080   SW ZERO, 128(FP)
9D0007E4  3C029D00   LUI V0, -25344
9D0007E8  24442CC0   ADDIU A0, V0, 11456
9D0007EC  0F401308   JAL __wrap_printf, _printf_cdnopuxX, _dprintf_cdnopuxX
9D0007F0  00000000   NOP
9D0007F4  8FC40080   LW A0, 128(FP)
9D0007F8  0F40050F   JAL LinkedListSize
9D0007FC  00000000   NOP
9D000800  AFC20088   SW V0, 136(FP)
9D000804  8FC20088   LW V0, 136(FP)
9D000808  1440000A   BNE V0, ZERO, 0x9D000834
9D00080C  00000000   NOP
9D000810  8F828014   LW V0, -32748(GP)
9D000814  24420001   ADDIU V0, V0, 1
9D000818  AF828014   SW V0, -32748(GP)
9D00081C  3C029D00   LUI V0, -25344
9D000820  24442CB0   ADDIU A0, V0, 11440
9D000824  0F40128C   JAL puts
9D000828  00000000   NOP
9D00082C  10000005   BEQ ZERO, ZERO, 0x9D000844
9D000830  00000000   NOP
9D000834  3C029D00   LUI V0, -25344
9D000838  24442CB8   ADDIU A0, V0, 11448
9D00083C  0F40128C   JAL puts
9D000840  00000000   NOP
9D000844  8F838014   LW V1, -32748(GP)
9D000848  24020002   ADDIU V0, ZERO, 2
9D00084C  14620004   BNE V1, V0, 0x9D000860
9D000850  00000000   NOP
9D000854  8F828018   LW V0, -32744(GP)
9D000858  24420001   ADDIU V0, V0, 1
9D00085C  AF828018   SW V0, -32744(GP)
9D000860  8F828014   LW V0, -32748(GP)
9D000864  00402825   OR A1, V0, ZERO
9D000868  3C029D00   LUI V0, -25344
9D00086C  24442CD8   ADDIU A0, V0, 11480
9D000870  0F401308   JAL __wrap_printf, _printf_cdnopuxX, _dprintf_cdnopuxX
9D000874  00000000   NOP
9D000878  AF808014   SW ZERO, -32748(GP)
9D00087C  8FC4007C   LW A0, 124(FP)
9D000880  0F400C1C   JAL free
9D000884  00000000   NOP
9D000888  8FC40080   LW A0, 128(FP)
9D00088C  0F400C1C   JAL free
9D000890  00000000   NOP
9D000894  3C029D00   LUI V0, -25344
9D000898  24442DBC   ADDIU A0, V0, 11708
9D00089C  0F40128C   JAL puts
9D0008A0  00000000   NOP
9D0008A4  3C029D00   LUI V0, -25344
9D0008A8  24422C8C   ADDIU V0, V0, 11404
9D0008AC  AFC2008C   SW V0, 140(FP)
9D0008B0  3C029D00   LUI V0, -25344
9D0008B4  24422D14   ADDIU V0, V0, 11540
9D0008B8  AFC20090   SW V0, 144(FP)
9D0008BC  8FC4008C   LW A0, 140(FP)
9D0008C0  0F40046E   JAL LinkedListNew
9D0008C4  00000000   NOP
9D0008C8  AFC20094   SW V0, 148(FP)
9D0008CC  8FC50090   LW A1, 144(FP)
9D0008D0  8FC40094   LW A0, 148(FP)
9D0008D4  0F40048B   JAL LinkedListCreateAfter
9D0008D8  00000000   NOP
9D0008DC  AFC20098   SW V0, 152(FP)
9D0008E0  3C029D00   LUI V0, -25344
9D0008E4  24442C98   ADDIU A0, V0, 11416
9D0008E8  0F401308   JAL __wrap_printf, _printf_cdnopuxX, _dprintf_cdnopuxX
9D0008EC  00000000   NOP
9D0008F0  8FC20098   LW V0, 152(FP)
9D0008F4  AFC2009C   SW V0, 156(FP)
9D0008F8  8FC40098   LW A0, 152(FP)
9D0008FC  0F400557   JAL LinkedListGetFirst
9D000900  00000000   NOP
9D000904  AFC200A0   SW V0, 160(FP)
9D000908  8FC300A0   LW V1, 160(FP)
9D00090C  8FC20094   LW V0, 148(FP)
9D000910  1462000E   BNE V1, V0, 0x9D00094C
9D000914  00000000   NOP
9D000918  8FC30098   LW V1, 152(FP)
9D00091C  8FC2009C   LW V0, 156(FP)
9D000920  1462000A   BNE V1, V0, 0x9D00094C
9D000924  00000000   NOP
9D000928  8F828014   LW V0, -32748(GP)
9D00092C  24420001   ADDIU V0, V0, 1
9D000930  AF828014   SW V0, -32748(GP)
9D000934  3C029D00   LUI V0, -25344
9D000938  24442CB0   ADDIU A0, V0, 11440
9D00093C  0F40128C   JAL puts
9D000940  00000000   NOP
9D000944  10000005   BEQ ZERO, ZERO, 0x9D00095C
9D000948  00000000   NOP
9D00094C  3C029D00   LUI V0, -25344
9D000950  24442CB8   ADDIU A0, V0, 11448
9D000954  0F40128C   JAL puts
9D000958  00000000   NOP
9D00095C  AFC00094   SW ZERO, 148(FP)
9D000960  8FC20098   LW V0, 152(FP)
9D000964  AC400000   SW ZERO, 0(V0)
9D000968  8FC20098   LW V0, 152(FP)
9D00096C  AFC2009C   SW V0, 156(FP)
9D000970  3C029D00   LUI V0, -25344
9D000974  24442CC0   ADDIU A0, V0, 11456
9D000978  0F401308   JAL __wrap_printf, _printf_cdnopuxX, _dprintf_cdnopuxX
9D00097C  00000000   NOP
9D000980  8FC40098   LW A0, 152(FP)
9D000984  0F400557   JAL LinkedListGetFirst
9D000988  00000000   NOP
9D00098C  AFC200A4   SW V0, 164(FP)
9D000990  8FC300A4   LW V1, 164(FP)
9D000994  8FC20098   LW V0, 152(FP)
9D000998  1462000E   BNE V1, V0, 0x9D0009D4
9D00099C  00000000   NOP
9D0009A0  8FC30098   LW V1, 152(FP)
9D0009A4  8FC2009C   LW V0, 156(FP)
9D0009A8  1462000A   BNE V1, V0, 0x9D0009D4
9D0009AC  00000000   NOP
9D0009B0  8F828014   LW V0, -32748(GP)
9D0009B4  24420001   ADDIU V0, V0, 1
9D0009B8  AF828014   SW V0, -32748(GP)
9D0009BC  3C029D00   LUI V0, -25344
9D0009C0  24442CB0   ADDIU A0, V0, 11440
9D0009C4  0F40128C   JAL puts
9D0009C8  00000000   NOP
9D0009CC  10000005   BEQ ZERO, ZERO, 0x9D0009E4
9D0009D0  00000000   NOP
9D0009D4  3C029D00   LUI V0, -25344
9D0009D8  24442CB8   ADDIU A0, V0, 11448
9D0009DC  0F40128C   JAL puts
9D0009E0  00000000   NOP
9D0009E4  AFC00098   SW ZERO, 152(FP)
9D0009E8  3C029D00   LUI V0, -25344
9D0009EC  24442D20   ADDIU A0, V0, 11552
9D0009F0  0F401308   JAL __wrap_printf, _printf_cdnopuxX, _dprintf_cdnopuxX
9D0009F4  00000000   NOP
9D0009F8  8FC40098   LW A0, 152(FP)
9D0009FC  0F400557   JAL LinkedListGetFirst
9D000A00  00000000   NOP
9D000A04  AFC200A8   SW V0, 168(FP)
9D000A08  8FC200A8   LW V0, 168(FP)
9D000A0C  1440000A   BNE V0, ZERO, 0x9D000A38
9D000A10  00000000   NOP
9D000A14  8F828014   LW V0, -32748(GP)
9D000A18  24420001   ADDIU V0, V0, 1
9D000A1C  AF828014   SW V0, -32748(GP)
9D000A20  3C029D00   LUI V0, -25344
9D000A24  24442CB0   ADDIU A0, V0, 11440
9D000A28  0F40128C   JAL puts
9D000A2C  00000000   NOP
9D000A30  10000005   BEQ ZERO, ZERO, 0x9D000A48
9D000A34  00000000   NOP
9D000A38  3C029D00   LUI V0, -25344
9D000A3C  24442CB8   ADDIU A0, V0, 11448
9D000A40  0F40128C   JAL puts
9D000A44  00000000   NOP
9D000A48  8F838014   LW V1, -32748(GP)
9D000A4C  24020003   ADDIU V0, ZERO, 3
9D000A50  14620004   BNE V1, V0, 0x9D000A64
9D000A54  00000000   NOP
9D000A58  8F828018   LW V0, -32744(GP)
9D000A5C  24420001   ADDIU V0, V0, 1
9D000A60  AF828018   SW V0, -32744(GP)
9D000A64  8F828014   LW V0, -32748(GP)
9D000A68  00402825   OR A1, V0, ZERO
9D000A6C  3C029D00   LUI V0, -25344
9D000A70  24442D3C   ADDIU A0, V0, 11580
9D000A74  0F401308   JAL __wrap_printf, _printf_cdnopuxX, _dprintf_cdnopuxX
9D000A78  00000000   NOP
9D000A7C  AF808014   SW ZERO, -32748(GP)
9D000A80  8FC40094   LW A0, 148(FP)
9D000A84  0F400C1C   JAL free
9D000A88  00000000   NOP
9D000A8C  8FC40098   LW A0, 152(FP)
9D000A90  0F400C1C   JAL free
9D000A94  00000000   NOP
9D000A98  8FC4009C   LW A0, 156(FP)
9D000A9C  0F400C1C   JAL free
9D000AA0  00000000   NOP
9D000AA4  8FC400A0   LW A0, 160(FP)
9D000AA8  0F400C1C   JAL free
9D000AAC  00000000   NOP
9D000AB0  8FC400A4   LW A0, 164(FP)
9D000AB4  0F400C1C   JAL free
9D000AB8  00000000   NOP
9D000ABC  8FC400A8   LW A0, 168(FP)
9D000AC0  0F400C1C   JAL free
9D000AC4  00000000   NOP
9D000AC8  3C029D00   LUI V0, -25344
9D000ACC  24442DD8   ADDIU A0, V0, 11736
9D000AD0  0F40128C   JAL puts
9D000AD4  00000000   NOP
9D000AD8  3C029D00   LUI V0, -25344
9D000ADC  24422C8C   ADDIU V0, V0, 11404
9D000AE0  AFC200AC   SW V0, 172(FP)
9D000AE4  3C029D00   LUI V0, -25344
9D000AE8  24422D14   ADDIU V0, V0, 11540
9D000AEC  AFC200B0   SW V0, 176(FP)
9D000AF0  8FC400AC   LW A0, 172(FP)
9D000AF4  0F40046E   JAL LinkedListNew
9D000AF8  00000000   NOP
9D000AFC  AFC200B4   SW V0, 180(FP)
9D000B00  8FC500B0   LW A1, 176(FP)
9D000B04  8FC400B4   LW A0, 180(FP)
9D000B08  0F40048B   JAL LinkedListCreateAfter
9D000B0C  00000000   NOP
9D000B10  AFC200B8   SW V0, 184(FP)
9D000B14  3C029D00   LUI V0, -25344
9D000B18  24442C98   ADDIU A0, V0, 11416
9D000B1C  0F401308   JAL __wrap_printf, _printf_cdnopuxX, _dprintf_cdnopuxX
9D000B20  00000000   NOP
9D000B24  8FC200B4   LW V0, 180(FP)
9D000B28  AFC200BC   SW V0, 188(FP)
9D000B2C  8FC400B4   LW A0, 180(FP)
9D000B30  0F400571   JAL LinkedListGetLast
9D000B34  00000000   NOP
9D000B38  AFC200C0   SW V0, 192(FP)
9D000B3C  8FC300C0   LW V1, 192(FP)
9D000B40  8FC200B8   LW V0, 184(FP)
9D000B44  1462000E   BNE V1, V0, 0x9D000B80
9D000B48  00000000   NOP
9D000B4C  8FC300B4   LW V1, 180(FP)
9D000B50  8FC200BC   LW V0, 188(FP)
9D000B54  1462000A   BNE V1, V0, 0x9D000B80
9D000B58  00000000   NOP
9D000B5C  8F828014   LW V0, -32748(GP)
9D000B60  24420001   ADDIU V0, V0, 1
9D000B64  AF828014   SW V0, -32748(GP)
9D000B68  3C029D00   LUI V0, -25344
9D000B6C  24442CB0   ADDIU A0, V0, 11440
9D000B70  0F40128C   JAL puts
9D000B74  00000000   NOP
9D000B78  10000005   BEQ ZERO, ZERO, 0x9D000B90
9D000B7C  00000000   NOP
9D000B80  3C029D00   LUI V0, -25344
9D000B84  24442CB8   ADDIU A0, V0, 11448
9D000B88  0F40128C   JAL puts
9D000B8C  00000000   NOP
9D000B90  AFC000B8   SW ZERO, 184(FP)
9D000B94  8FC200B4   LW V0, 180(FP)
9D000B98  AC400004   SW ZERO, 4(V0)
9D000B9C  8FC200B4   LW V0, 180(FP)
9D000BA0  AFC200BC   SW V0, 188(FP)
9D000BA4  3C029D00   LUI V0, -25344
9D000BA8  24442CC0   ADDIU A0, V0, 11456
9D000BAC  0F401308   JAL __wrap_printf, _printf_cdnopuxX, _dprintf_cdnopuxX
9D000BB0  00000000   NOP
9D000BB4  8FC400B4   LW A0, 180(FP)
9D000BB8  0F400571   JAL LinkedListGetLast
9D000BBC  00000000   NOP
9D000BC0  AFC200C4   SW V0, 196(FP)
9D000BC4  8FC300C4   LW V1, 196(FP)
9D000BC8  8FC200B4   LW V0, 180(FP)
9D000BCC  1462000E   BNE V1, V0, 0x9D000C08
9D000BD0  00000000   NOP
9D000BD4  8FC300B4   LW V1, 180(FP)
9D000BD8  8FC200BC   LW V0, 188(FP)
9D000BDC  1462000A   BNE V1, V0, 0x9D000C08
9D000BE0  00000000   NOP
9D000BE4  8F828014   LW V0, -32748(GP)
9D000BE8  24420001   ADDIU V0, V0, 1
9D000BEC  AF828014   SW V0, -32748(GP)
9D000BF0  3C029D00   LUI V0, -25344
9D000BF4  24442CB0   ADDIU A0, V0, 11440
9D000BF8  0F40128C   JAL puts
9D000BFC  00000000   NOP
9D000C00  10000005   BEQ ZERO, ZERO, 0x9D000C18
9D000C04  00000000   NOP
9D000C08  3C029D00   LUI V0, -25344
9D000C0C  24442CB8   ADDIU A0, V0, 11448
9D000C10  0F40128C   JAL puts
9D000C14  00000000   NOP
9D000C18  AFC000B4   SW ZERO, 180(FP)
9D000C1C  3C029D00   LUI V0, -25344
9D000C20  24442D20   ADDIU A0, V0, 11552
9D000C24  0F401308   JAL __wrap_printf, _printf_cdnopuxX, _dprintf_cdnopuxX
9D000C28  00000000   NOP
9D000C2C  8FC400B4   LW A0, 180(FP)
9D000C30  0F400571   JAL LinkedListGetLast
9D000C34  00000000   NOP
9D000C38  AFC200C8   SW V0, 200(FP)
9D000C3C  8FC200C8   LW V0, 200(FP)
9D000C40  1440000A   BNE V0, ZERO, 0x9D000C6C
9D000C44  00000000   NOP
9D000C48  8F828014   LW V0, -32748(GP)
9D000C4C  24420001   ADDIU V0, V0, 1
9D000C50  AF828014   SW V0, -32748(GP)
9D000C54  3C029D00   LUI V0, -25344
9D000C58  24442CB0   ADDIU A0, V0, 11440
9D000C5C  0F40128C   JAL puts
9D000C60  00000000   NOP
9D000C64  10000005   BEQ ZERO, ZERO, 0x9D000C7C
9D000C68  00000000   NOP
9D000C6C  3C029D00   LUI V0, -25344
9D000C70  24442CB8   ADDIU A0, V0, 11448
9D000C74  0F40128C   JAL puts
9D000C78  00000000   NOP
9D000C7C  8F838014   LW V1, -32748(GP)
9D000C80  24020003   ADDIU V0, ZERO, 3
9D000C84  14620004   BNE V1, V0, 0x9D000C98
9D000C88  00000000   NOP
9D000C8C  8F828018   LW V0, -32744(GP)
9D000C90  24420001   ADDIU V0, V0, 1
9D000C94  AF828018   SW V0, -32744(GP)
9D000C98  8F828014   LW V0, -32748(GP)
9D000C9C  00402825   OR A1, V0, ZERO
9D000CA0  3C029D00   LUI V0, -25344
9D000CA4  24442D3C   ADDIU A0, V0, 11580
9D000CA8  0F401308   JAL __wrap_printf, _printf_cdnopuxX, _dprintf_cdnopuxX
9D000CAC  00000000   NOP
9D000CB0  AF808014   SW ZERO, -32748(GP)
9D000CB4  8FC400B4   LW A0, 180(FP)
9D000CB8  0F400C1C   JAL free
9D000CBC  00000000   NOP
9D000CC0  8FC400B8   LW A0, 184(FP)
9D000CC4  0F400C1C   JAL free
9D000CC8  00000000   NOP
9D000CCC  8FC400BC   LW A0, 188(FP)
9D000CD0  0F400C1C   JAL free
9D000CD4  00000000   NOP
9D000CD8  8FC400C0   LW A0, 192(FP)
9D000CDC  0F400C1C   JAL free
9D000CE0  00000000   NOP
9D000CE4  8FC400C4   LW A0, 196(FP)
9D000CE8  0F400C1C   JAL free
9D000CEC  00000000   NOP
9D000CF0  8FC400C8   LW A0, 200(FP)
9D000CF4  0F400C1C   JAL free
9D000CF8  00000000   NOP
9D000CFC  3C029D00   LUI V0, -25344
9D000D00  24442DF4   ADDIU A0, V0, 11764
9D000D04  0F40128C   JAL puts
9D000D08  00000000   NOP
9D000D0C  3C029D00   LUI V0, -25344
9D000D10  24422C8C   ADDIU V0, V0, 11404
9D000D14  AFC200CC   SW V0, 204(FP)
9D000D18  3C029D00   LUI V0, -25344
9D000D1C  24422D14   ADDIU V0, V0, 11540
9D000D20  AFC200D0   SW V0, 208(FP)
9D000D24  3C029D00   LUI V0, -25344
9D000D28  24422D18   ADDIU V0, V0, 11544
9D000D2C  AFC200D4   SW V0, 212(FP)
9D000D30  AFC000D8   SW ZERO, 216(FP)
9D000D34  8FC400CC   LW A0, 204(FP)
9D000D38  0F40046E   JAL LinkedListNew
9D000D3C  00000000   NOP
9D000D40  AFC200DC   SW V0, 220(FP)
9D000D44  8FC500D0   LW A1, 208(FP)
9D000D48  8FC400DC   LW A0, 220(FP)
9D000D4C  0F40048B   JAL LinkedListCreateAfter
9D000D50  00000000   NOP
9D000D54  AFC200E0   SW V0, 224(FP)
9D000D58  8FC500D4   LW A1, 212(FP)
9D000D5C  8FC400E0   LW A0, 224(FP)
9D000D60  0F40048B   JAL LinkedListCreateAfter
9D000D64  00000000   NOP
9D000D68  AFC200E4   SW V0, 228(FP)
9D000D6C  8FC500D8   LW A1, 216(FP)
9D000D70  8FC400E4   LW A0, 228(FP)
9D000D74  0F40048B   JAL LinkedListCreateAfter
9D000D78  00000000   NOP
9D000D7C  AFC200E8   SW V0, 232(FP)
9D000D80  3C029D00   LUI V0, -25344
9D000D84  24442C98   ADDIU A0, V0, 11416
9D000D88  0F401308   JAL __wrap_printf, _printf_cdnopuxX, _dprintf_cdnopuxX
9D000D8C  00000000   NOP
9D000D90  8FC500E4   LW A1, 228(FP)
9D000D94  8FC400DC   LW A0, 220(FP)
9D000D98  0F40058B   JAL LinkedListSwapData
9D000D9C  00000000   NOP
9D000DA0  AFC200EC   SW V0, 236(FP)
9D000DA4  8FC300EC   LW V1, 236(FP)
9D000DA8  24020001   ADDIU V0, ZERO, 1
9D000DAC  14620018   BNE V1, V0, 0x9D000E10
9D000DB0  00000000   NOP
9D000DB4  8FC200DC   LW V0, 220(FP)
9D000DB8  8C420008   LW V0, 8(V0)
9D000DBC  8FC300D4   LW V1, 212(FP)
9D000DC0  14620013   BNE V1, V0, 0x9D000E10
9D000DC4  00000000   NOP
9D000DC8  8FC200E4   LW V0, 228(FP)
9D000DCC  8C420008   LW V0, 8(V0)
9D000DD0  8FC300CC   LW V1, 204(FP)
9D000DD4  1462000E   BNE V1, V0, 0x9D000E10
9D000DD8  00000000   NOP
9D000DDC  8F828014   LW V0, -32748(GP)
9D000DE0  24420001   ADDIU V0, V0, 1
9D000DE4  AF828014   SW V0, -32748(GP)
9D000DE8  3C029D00   LUI V0, -25344
9D000DEC  24442CB0   ADDIU A0, V0, 11440
9D000DF0  0F40128C   JAL puts
9D000DF4  00000000   NOP
9D000DF8  8FC500E4   LW A1, 228(FP)
9D000DFC  8FC400DC   LW A0, 220(FP)
9D000E00  0F40058B   JAL LinkedListSwapData
9D000E04  00000000   NOP
9D000E08  10000005   BEQ ZERO, ZERO, 0x9D000E20
9D000E0C  00000000   NOP
9D000E10  3C029D00   LUI V0, -25344
9D000E14  24442CB8   ADDIU A0, V0, 11448
9D000E18  0F40128C   JAL puts
9D000E1C  00000000   NOP
9D000E20  3C029D00   LUI V0, -25344
9D000E24  24442CC0   ADDIU A0, V0, 11456
9D000E28  0F401308   JAL __wrap_printf, _printf_cdnopuxX, _dprintf_cdnopuxX
9D000E2C  00000000   NOP
9D000E30  8FC500E8   LW A1, 232(FP)
9D000E34  8FC400E0   LW A0, 224(FP)
9D000E38  0F40058B   JAL LinkedListSwapData
9D000E3C  00000000   NOP
9D000E40  AFC200F0   SW V0, 240(FP)
9D000E44  8FC300F0   LW V1, 240(FP)
9D000E48  24020001   ADDIU V0, ZERO, 1
9D000E4C  14620018   BNE V1, V0, 0x9D000EB0
9D000E50  00000000   NOP
9D000E54  8FC200E0   LW V0, 224(FP)
9D000E58  8C420008   LW V0, 8(V0)
9D000E5C  8FC300D8   LW V1, 216(FP)
9D000E60  14620013   BNE V1, V0, 0x9D000EB0
9D000E64  00000000   NOP
9D000E68  8FC200E8   LW V0, 232(FP)
9D000E6C  8C420008   LW V0, 8(V0)
9D000E70  8FC300D0   LW V1, 208(FP)
9D000E74  1462000E   BNE V1, V0, 0x9D000EB0
9D000E78  00000000   NOP
9D000E7C  8F828014   LW V0, -32748(GP)
9D000E80  24420001   ADDIU V0, V0, 1
9D000E84  AF828014   SW V0, -32748(GP)
9D000E88  3C029D00   LUI V0, -25344
9D000E8C  24442CB0   ADDIU A0, V0, 11440
9D000E90  0F40128C   JAL puts
9D000E94  00000000   NOP
9D000E98  8FC500E8   LW A1, 232(FP)
9D000E9C  8FC400E0   LW A0, 224(FP)
9D000EA0  0F40058B   JAL LinkedListSwapData
9D000EA4  00000000   NOP
9D000EA8  10000005   BEQ ZERO, ZERO, 0x9D000EC0
9D000EAC  00000000   NOP
9D000EB0  3C029D00   LUI V0, -25344
9D000EB4  24442CB8   ADDIU A0, V0, 11448
9D000EB8  0F40128C   JAL puts
9D000EBC  00000000   NOP
9D000EC0  AFC000E0   SW ZERO, 224(FP)
9D000EC4  3C029D00   LUI V0, -25344
9D000EC8  24442D20   ADDIU A0, V0, 11552
9D000ECC  0F401308   JAL __wrap_printf, _printf_cdnopuxX, _dprintf_cdnopuxX
9D000ED0  00000000   NOP
9D000ED4  8FC500E8   LW A1, 232(FP)
9D000ED8  8FC400E0   LW A0, 224(FP)
9D000EDC  0F40058B   JAL LinkedListSwapData
9D000EE0  00000000   NOP
9D000EE4  AFC200F4   SW V0, 244(FP)
9D000EE8  8FC200F4   LW V0, 244(FP)
9D000EEC  1440000E   BNE V0, ZERO, 0x9D000F28
9D000EF0  00000000   NOP
9D000EF4  8F828014   LW V0, -32748(GP)
9D000EF8  24420001   ADDIU V0, V0, 1
9D000EFC  AF828014   SW V0, -32748(GP)
9D000F00  3C029D00   LUI V0, -25344
9D000F04  24442CB0   ADDIU A0, V0, 11440
9D000F08  0F40128C   JAL puts
9D000F0C  00000000   NOP
9D000F10  8FC500E8   LW A1, 232(FP)
9D000F14  8FC400E0   LW A0, 224(FP)
9D000F18  0F40058B   JAL LinkedListSwapData
9D000F1C  00000000   NOP
9D000F20  10000005   BEQ ZERO, ZERO, 0x9D000F38
9D000F24  00000000   NOP
9D000F28  3C029D00   LUI V0, -25344
9D000F2C  24442CB8   ADDIU A0, V0, 11448
9D000F30  0F40128C   JAL puts
9D000F34  00000000   NOP
9D000F38  8F838014   LW V1, -32748(GP)
9D000F3C  24020003   ADDIU V0, ZERO, 3
9D000F40  14620004   BNE V1, V0, 0x9D000F54
9D000F44  00000000   NOP
9D000F48  8F828018   LW V0, -32744(GP)
9D000F4C  24420001   ADDIU V0, V0, 1
9D000F50  AF828018   SW V0, -32744(GP)
9D000F54  8F828014   LW V0, -32748(GP)
9D000F58  00402825   OR A1, V0, ZERO
9D000F5C  3C029D00   LUI V0, -25344
9D000F60  24442D3C   ADDIU A0, V0, 11580
9D000F64  0F401308   JAL __wrap_printf, _printf_cdnopuxX, _dprintf_cdnopuxX
9D000F68  00000000   NOP
9D000F6C  AF808014   SW ZERO, -32748(GP)
9D000F70  8FC400DC   LW A0, 220(FP)
9D000F74  0F400C1C   JAL free
9D000F78  00000000   NOP
9D000F7C  8FC400E0   LW A0, 224(FP)
9D000F80  0F400C1C   JAL free
9D000F84  00000000   NOP
9D000F88  8FC400E4   LW A0, 228(FP)
9D000F8C  0F400C1C   JAL free
9D000F90  00000000   NOP
9D000F94  8FC400E8   LW A0, 232(FP)
9D000F98  0F400C1C   JAL free
9D000F9C  00000000   NOP
9D000FA0  3C029D00   LUI V0, -25344
9D000FA4  24442E10   ADDIU A0, V0, 11792
9D000FA8  0F40128C   JAL puts
9D000FAC  00000000   NOP
9D000FB0  3C029D00   LUI V0, -25344
9D000FB4  24422C8C   ADDIU V0, V0, 11404
9D000FB8  AFC200F8   SW V0, 248(FP)
9D000FBC  AFC000FC   SW ZERO, 252(FP)
9D000FC0  3C029D00   LUI V0, -25344
9D000FC4  24422D14   ADDIU V0, V0, 11540
9D000FC8  AFC20100   SW V0, 256(FP)
9D000FCC  8FC400F8   LW A0, 248(FP)
9D000FD0  0F40046E   JAL LinkedListNew
9D000FD4  00000000   NOP
9D000FD8  AFC20104   SW V0, 260(FP)
9D000FDC  8FC40104   LW A0, 260(FP)
9D000FE0  0F40050F   JAL LinkedListSize
9D000FE4  00000000   NOP
9D000FE8  00402825   OR A1, V0, ZERO
9D000FEC  3C029D00   LUI V0, -25344
9D000FF0  24442E28   ADDIU A0, V0, 11816
9D000FF4  0F401308   JAL __wrap_printf, _printf_cdnopuxX, _dprintf_cdnopuxX
9D000FF8  00000000   NOP
9D000FFC  8FC500FC   LW A1, 252(FP)
9D001000  8FC40104   LW A0, 260(FP)
9D001004  0F40048B   JAL LinkedListCreateAfter
9D001008  00000000   NOP
9D00100C  AFC20108   SW V0, 264(FP)
9D001010  8FC40104   LW A0, 260(FP)
9D001014  0F40050F   JAL LinkedListSize
9D001018  00000000   NOP
9D00101C  00402825   OR A1, V0, ZERO
9D001020  3C029D00   LUI V0, -25344
9D001024  24442E28   ADDIU A0, V0, 11816
9D001028  0F401308   JAL __wrap_printf, _printf_cdnopuxX, _dprintf_cdnopuxX
9D00102C  00000000   NOP
9D001030  8FC50100   LW A1, 256(FP)
9D001034  8FC40108   LW A0, 264(FP)
9D001038  0F40048B   JAL LinkedListCreateAfter
9D00103C  00000000   NOP
9D001040  AFC2010C   SW V0, 268(FP)
9D001044  8FC40104   LW A0, 260(FP)
9D001048  0F40050F   JAL LinkedListSize
9D00104C  00000000   NOP
9D001050  00402825   OR A1, V0, ZERO
9D001054  3C029D00   LUI V0, -25344
9D001058  24442E28   ADDIU A0, V0, 11816
9D00105C  0F401308   JAL __wrap_printf, _printf_cdnopuxX, _dprintf_cdnopuxX
9D001060  00000000   NOP
9D001064  3C029D00   LUI V0, -25344
9D001068  24442C98   ADDIU A0, V0, 11416
9D00106C  0F40128C   JAL puts
9D001070  00000000   NOP
9D001074  8FC40108   LW A0, 264(FP)
9D001078  0F4005A9   JAL LinkedListPrint
9D00107C  00000000   NOP
9D001080  AFC20110   SW V0, 272(FP)
9D001084  8FC30110   LW V1, 272(FP)
9D001088  24020001   ADDIU V0, ZERO, 1
9D00108C  1462000A   BNE V1, V0, 0x9D0010B8
9D001090  00000000   NOP
9D001094  8F828014   LW V0, -32748(GP)
9D001098  24420001   ADDIU V0, V0, 1
9D00109C  AF828014   SW V0, -32748(GP)
9D0010A0  3C029D00   LUI V0, -25344
9D0010A4  24442CB0   ADDIU A0, V0, 11440
9D0010A8  0F40128C   JAL puts
9D0010AC  00000000   NOP
9D0010B0  10000005   BEQ ZERO, ZERO, 0x9D0010C8
9D0010B4  00000000   NOP
9D0010B8  3C029D00   LUI V0, -25344
9D0010BC  24442CB8   ADDIU A0, V0, 11448
9D0010C0  0F40128C   JAL puts
9D0010C4  00000000   NOP
9D0010C8  AFC00108   SW ZERO, 264(FP)
9D0010CC  3C029D00   LUI V0, -25344
9D0010D0  24442CC0   ADDIU A0, V0, 11456
9D0010D4  0F40128C   JAL puts
9D0010D8  00000000   NOP
9D0010DC  8FC40108   LW A0, 264(FP)
9D0010E0  0F4005A9   JAL LinkedListPrint
9D0010E4  00000000   NOP
9D0010E8  AFC20114   SW V0, 276(FP)
9D0010EC  8FC20114   LW V0, 276(FP)
9D0010F0  1440000A   BNE V0, ZERO, 0x9D00111C
9D0010F4  00000000   NOP
9D0010F8  8F828014   LW V0, -32748(GP)
9D0010FC  24420001   ADDIU V0, V0, 1
9D001100  AF828014   SW V0, -32748(GP)
9D001104  3C029D00   LUI V0, -25344
9D001108  24442CB0   ADDIU A0, V0, 11440
9D00110C  0F40128C   JAL puts
9D001110  00000000   NOP
9D001114  10000005   BEQ ZERO, ZERO, 0x9D00112C
9D001118  00000000   NOP
9D00111C  3C029D00   LUI V0, -25344
9D001120  24442CB8   ADDIU A0, V0, 11448
9D001124  0F40128C   JAL puts
9D001128  00000000   NOP
9D00112C  8F838014   LW V1, -32748(GP)
9D001130  24020002   ADDIU V0, ZERO, 2
9D001134  14620004   BNE V1, V0, 0x9D001148
9D001138  00000000   NOP
9D00113C  8F828018   LW V0, -32744(GP)
9D001140  24420001   ADDIU V0, V0, 1
9D001144  AF828018   SW V0, -32744(GP)
9D001148  8F828014   LW V0, -32748(GP)
9D00114C  00402825   OR A1, V0, ZERO
9D001150  3C029D00   LUI V0, -25344
9D001154  24442CD8   ADDIU A0, V0, 11480
9D001158  0F401308   JAL __wrap_printf, _printf_cdnopuxX, _dprintf_cdnopuxX
9D00115C  00000000   NOP
9D001160  8F828018   LW V0, -32744(GP)
9D001164  00402825   OR A1, V0, ZERO
9D001168  3C029D00   LUI V0, -25344
9D00116C  24442E2C   ADDIU A0, V0, 11820
9D001170  0F401308   JAL __wrap_printf, _printf_cdnopuxX, _dprintf_cdnopuxX
9D001174  00000000   NOP
9D001178  8FC40104   LW A0, 260(FP)
9D00117C  0F400C1C   JAL free
9D001180  00000000   NOP
9D001184  8FC40108   LW A0, 264(FP)
9D001188  0F400C1C   JAL free
9D00118C  00000000   NOP
9D001190  8FC4010C   LW A0, 268(FP)
9D001194  0F400C1C   JAL free
9D001198  00000000   NOP
9D00119C  00001025   OR V0, ZERO, ZERO
9D0011A0  03C0E825   OR SP, FP, ZERO
9D0011A4  8FBF011C   LW RA, 284(SP)
9D0011A8  8FBE0118   LW FP, 280(SP)
9D0011AC  27BD0120   ADDIU SP, SP, 288
9D0011B0  03E00008   JR RA
9D0011B4  00000000   NOP
---  d:/cadence/spb_data/nehu/lab05/lab_5.x/linkedlist.c  -----------------------------------------------
1:                   /* 
2:                    * File:   LinkedList.c
3:                    * Author: ????
4:                    *
5:                    * Created on January 31, 2022, 1:21 PM
6:                    */
7:                   
8:                   #include <stdio.h>
9:                   #include <stdlib.h>
10:                  #include "LinkedList.h"
11:                  #include "BOARD.h"
12:                  
13:                  /*
14:                   * 
15:                   */
16:                  ListItem *LinkedListNew(char *data)
17:                  {
18:                      ListItem *link = (ListItem *)malloc(8*sizeof(data)) ;
19:                      if (link == NULL) {
20:                          return NULL;
21:                      } else {
22:                          link->previousItem = NULL;
23:                          link->nextItem = NULL;
24:                          link->data = data;
25:                          return link;
26:                      }
27:                  }
28:                  
29:                  ListItem *LinkedListCreateAfter(ListItem *item, char *data)
30:                  {
31:                      ListItem *link = (ListItem *)malloc(8*sizeof(data));
32:                      
33:                      if (link == NULL) {
34:                          return NULL;
35:                      } else if (item == NULL) {
36:                          link = LinkedListNew(data);
37:                          return link;
38:                      } else if (item != NULL) {
39:                          if (item->nextItem == NULL) {
40:                              item->nextItem = link;
41:                              link->previousItem = item;
42:                              link->data = data;
43:                              link->nextItem = NULL;
44:                          } else if (item->nextItem != NULL) {
45:                              link->previousItem = item;
46:                              link->data = data;
47:                              link->nextItem = item->nextItem;
48:                              item->nextItem = link;
49:                              (link->nextItem)->previousItem = link;
50:                          }
51:                          return link;
52:                      } 
53:                  }
54:                  
55:                  char *LinkedListRemove(ListItem *item)
56:                  {
57:                      char * i;
58:                      
59:                      if (item == NULL) {
60:                          i = NULL;
61:                      } else {
62:                          i = item->data;
63:                          if (item->previousItem != NULL) {
64:                              if (item->nextItem != NULL) {
65:                                  (item->nextItem)->previousItem = item->previousItem; 
66:                                  (item->previousItem)->nextItem = item->nextItem;
67:                              } else {
68:                                  (item->previousItem)->nextItem = NULL;
69:                              }
70:                          } else {
71:                              if (item->nextItem != NULL) {
72:                                  (item->nextItem)->previousItem = NULL;
73:                              }
74:                          }    
75:                      }    
76:                      
77:                      free(item);
78:                      
79:                      return i;
80:                      
81:                  }
82:                  
83:                  int LinkedListSize(ListItem *list)
84:                  {
85:                      int i = 0, j1, j2;
86:                      
87:                      if (list == NULL) {            //for now
88:                          return 0;
89:                      } else {
90:                          for (;list->previousItem != NULL;) {   //for previous
91:                              list = list->previousItem;
92:                              i++;
93:                          }
94:                          j1 = i;
95:                          j2 = i;
96:                          for (;j1 > 0; j1--) {
97:                              list = list->nextItem;
98:                          }
99:                          
100:                         for (;list->nextItem!= NULL;) {      // for next
101:                             list = list->nextItem;
102:                             i++;
103:                         }
104:                         list = LinkedListGetFirst(list);
105:                         
106:                         for (;j2 > 0; j2--) {
107:                             list = list->nextItem;
108:                         }
109:                         return i+1;
110:                     }
111:                 }
112:                 
113:                 ListItem *LinkedListGetFirst(ListItem *list)
114:                 {
115:                     int num;
116:                     
117:                     if (list == NULL) {
118:                         return NULL;
119:                     } else {
120:                         for (;list->previousItem != NULL;) {
121:                             list = list->previousItem;
122:                             num++;
123:                         }
124:                         return list;
125:                     }
126:                     for (; num > 0; num--) {
127:                         list = list->nextItem;
128:                     }
129:                 }
130:                 
131:                 ListItem *LinkedListGetLast(ListItem *list)
132:                 {
133:                     int num;
134:                     
135:                     if (list == NULL) {
136:                         return NULL;
137:                     } else {
138:                         for (;list->nextItem != NULL;) {
139:                             list = list->nextItem;
140:                             num++;
141:                         }
142:                         return list;
143:                     }
144:                     //need adjust
145:                     for (; num > 0; num--) {
146:                         list = list->previousItem;
147:                     }
148:                 }
149:                 
150:                 int LinkedListSwapData(ListItem *firstItem, ListItem *secondItem)
151:                 {
152:                     char * temp;
153:                 
154:                     if (firstItem == NULL || secondItem == NULL) {
155:                         return STANDARD_ERROR;
156:                     } else {
157:                         temp = firstItem->data;
158:                         firstItem->data = secondItem->data;
159:                         secondItem->data = temp;
160:                         return SUCCESS;
161:                     }
162:                 }
163:                 
164:                 
165:                 int LinkedListPrint(ListItem *list)
166:                 {
167:                     int num,counter=0;
168:                     if (list == NULL) {
169:                         return STANDARD_ERROR;
170:                     } else {
171:                         num = LinkedListSize(list);
172:                         for (;list->previousItem != NULL;) {
173:                             list = list->previousItem;
174:                             counter++;
175:                         }
176:                         
177:                         printf("[");
178:                         for (;num > 1 ; num--) {
179:                             printf("%s, ", list->data);
180:                             list = list->nextItem;
181:                         }
182:                         printf("]");
183:                         
184:                         list = LinkedListGetFirst(list);
185:                         for(; counter > 0; counter--) {
186:                             list = list->nextItem;
187:                         }
188:                         return SUCCESS;
189:                     }
190:                 }
-----*  Optimizer-Generated Procedural Abstractions  *----------------------------------------------
9D0011B8  27BDFFE0   ADDIU SP, SP, -32
9D0011BC  AFBF001C   SW RA, 28(SP)
9D0011C0  AFBE0018   SW FP, 24(SP)
9D0011C4  03A0F025   OR FP, SP, ZERO
9D0011C8  AFC40020   SW A0, 32(FP)
9D0011CC  24040020   ADDIU A0, ZERO, 32
9D0011D0  0F400A67   JAL malloc
9D0011D4  00000000   NOP
9D0011D8  AFC20010   SW V0, 16(FP)
9D0011DC  8FC20010   LW V0, 16(FP)
9D0011E0  14400004   BNE V0, ZERO, 0x9D0011F4
9D0011E4  00000000   NOP
9D0011E8  00001025   OR V0, ZERO, ZERO
9D0011EC  10000009   BEQ ZERO, ZERO, 0x9D001214
9D0011F0  00000000   NOP
9D0011F4  8FC20010   LW V0, 16(FP)
9D0011F8  AC400000   SW ZERO, 0(V0)
9D0011FC  8FC20010   LW V0, 16(FP)
9D001200  AC400004   SW ZERO, 4(V0)
9D001204  8FC20010   LW V0, 16(FP)
9D001208  8FC30020   LW V1, 32(FP)
9D00120C  AC430008   SW V1, 8(V0)
9D001210  8FC20010   LW V0, 16(FP)
9D001214  03C0E825   OR SP, FP, ZERO
9D001218  8FBF001C   LW RA, 28(SP)
9D00121C  8FBE0018   LW FP, 24(SP)
9D001220  27BD0020   ADDIU SP, SP, 32
9D001224  03E00008   JR RA
9D001228  00000000   NOP
9D00122C  27BDFFE0   ADDIU SP, SP, -32
9D001230  AFBF001C   SW RA, 28(SP)
9D001234  AFBE0018   SW FP, 24(SP)
9D001238  03A0F025   OR FP, SP, ZERO
9D00123C  AFC40020   SW A0, 32(FP)
9D001240  AFC50024   SW A1, 36(FP)
9D001244  24040020   ADDIU A0, ZERO, 32
9D001248  0F400A67   JAL malloc
9D00124C  00000000   NOP
9D001250  AFC20010   SW V0, 16(FP)
9D001254  8FC20010   LW V0, 16(FP)
9D001258  14400004   BNE V0, ZERO, 0x9D00126C
9D00125C  00000000   NOP
9D001260  00001025   OR V0, ZERO, ZERO
9D001264  10000037   BEQ ZERO, ZERO, 0x9D001344
9D001268  00000000   NOP
9D00126C  8FC20020   LW V0, 32(FP)
9D001270  14400008   BNE V0, ZERO, 0x9D001294
9D001274  00000000   NOP
9D001278  8FC40024   LW A0, 36(FP)
9D00127C  0F40046E   JAL LinkedListNew
9D001280  00000000   NOP
9D001284  AFC20010   SW V0, 16(FP)
9D001288  8FC20010   LW V0, 16(FP)
9D00128C  1000002D   BEQ ZERO, ZERO, 0x9D001344
9D001290  00000000   NOP
9D001294  8FC20020   LW V0, 32(FP)
9D001298  1040002A   BEQ V0, ZERO, 0x9D001344
9D00129C  00000000   NOP
9D0012A0  8FC20020   LW V0, 32(FP)
9D0012A4  8C420004   LW V0, 4(V0)
9D0012A8  1440000E   BNE V0, ZERO, 0x9D0012E4
9D0012AC  00000000   NOP
9D0012B0  8FC20020   LW V0, 32(FP)
9D0012B4  8FC30010   LW V1, 16(FP)
9D0012B8  AC430004   SW V1, 4(V0)
9D0012BC  8FC20010   LW V0, 16(FP)
9D0012C0  8FC30020   LW V1, 32(FP)
9D0012C4  AC430000   SW V1, 0(V0)
9D0012C8  8FC20010   LW V0, 16(FP)
9D0012CC  8FC30024   LW V1, 36(FP)
9D0012D0  AC430008   SW V1, 8(V0)
9D0012D4  8FC20010   LW V0, 16(FP)
9D0012D8  AC400004   SW ZERO, 4(V0)
9D0012DC  10000016   BEQ ZERO, ZERO, 0x9D001338
9D0012E0  00000000   NOP
9D0012E4  8FC20020   LW V0, 32(FP)
9D0012E8  8C420004   LW V0, 4(V0)
9D0012EC  10400012   BEQ V0, ZERO, 0x9D001338
9D0012F0  00000000   NOP
9D0012F4  8FC20010   LW V0, 16(FP)
9D0012F8  8FC30020   LW V1, 32(FP)
9D0012FC  AC430000   SW V1, 0(V0)
9D001300  8FC20010   LW V0, 16(FP)
9D001304  8FC30024   LW V1, 36(FP)
9D001308  AC430008   SW V1, 8(V0)
9D00130C  8FC20020   LW V0, 32(FP)
9D001310  8C430004   LW V1, 4(V0)
9D001314  8FC20010   LW V0, 16(FP)
9D001318  AC430004   SW V1, 4(V0)
9D00131C  8FC20020   LW V0, 32(FP)
9D001320  8FC30010   LW V1, 16(FP)
9D001324  AC430004   SW V1, 4(V0)
9D001328  8FC20010   LW V0, 16(FP)
9D00132C  8C420004   LW V0, 4(V0)
9D001330  8FC30010   LW V1, 16(FP)
9D001334  AC430000   SW V1, 0(V0)
9D001338  8FC20010   LW V0, 16(FP)
9D00133C  10000001   BEQ ZERO, ZERO, 0x9D001344
9D001340  00000000   NOP
9D001344  03C0E825   OR SP, FP, ZERO
9D001348  8FBF001C   LW RA, 28(SP)
9D00134C  8FBE0018   LW FP, 24(SP)
9D001350  27BD0020   ADDIU SP, SP, 32
9D001354  03E00008   JR RA
9D001358  00000000   NOP
9D00135C  27BDFFE0   ADDIU SP, SP, -32
9D001360  AFBF001C   SW RA, 28(SP)
9D001364  AFBE0018   SW FP, 24(SP)
9D001368  03A0F025   OR FP, SP, ZERO
9D00136C  AFC40020   SW A0, 32(FP)
9D001370  8FC20020   LW V0, 32(FP)
9D001374  14400004   BNE V0, ZERO, 0x9D001388
9D001378  00000000   NOP
9D00137C  AFC00010   SW ZERO, 16(FP)
9D001380  10000024   BEQ ZERO, ZERO, 0x9D001414
9D001384  00000000   NOP
9D001388  8FC20020   LW V0, 32(FP)
9D00138C  8C420008   LW V0, 8(V0)
9D001390  AFC20010   SW V0, 16(FP)
9D001394  8FC20020   LW V0, 32(FP)
9D001398  8C420000   LW V0, 0(V0)
9D00139C  10400016   BEQ V0, ZERO, 0x9D0013F8
9D0013A0  00000000   NOP
9D0013A4  8FC20020   LW V0, 32(FP)
9D0013A8  8C420004   LW V0, 4(V0)
9D0013AC  1040000D   BEQ V0, ZERO, 0x9D0013E4
9D0013B0  00000000   NOP
9D0013B4  8FC20020   LW V0, 32(FP)
9D0013B8  8C420004   LW V0, 4(V0)
9D0013BC  8FC30020   LW V1, 32(FP)
9D0013C0  8C630000   LW V1, 0(V1)
9D0013C4  AC430000   SW V1, 0(V0)
9D0013C8  8FC20020   LW V0, 32(FP)
9D0013CC  8C420000   LW V0, 0(V0)
9D0013D0  8FC30020   LW V1, 32(FP)
9D0013D4  8C630004   LW V1, 4(V1)
9D0013D8  AC430004   SW V1, 4(V0)
9D0013DC  1000000D   BEQ ZERO, ZERO, 0x9D001414
9D0013E0  00000000   NOP
9D0013E4  8FC20020   LW V0, 32(FP)
9D0013E8  8C420000   LW V0, 0(V0)
9D0013EC  AC400004   SW ZERO, 4(V0)
9D0013F0  10000008   BEQ ZERO, ZERO, 0x9D001414
9D0013F4  00000000   NOP
9D0013F8  8FC20020   LW V0, 32(FP)
9D0013FC  8C420004   LW V0, 4(V0)
9D001400  10400004   BEQ V0, ZERO, 0x9D001414
9D001404  00000000   NOP
9D001408  8FC20020   LW V0, 32(FP)
9D00140C  8C420004   LW V0, 4(V0)
9D001410  AC400000   SW ZERO, 0(V0)
9D001414  8FC40020   LW A0, 32(FP)
9D001418  0F400C1C   JAL free
9D00141C  00000000   NOP
9D001420  8FC20010   LW V0, 16(FP)
9D001424  03C0E825   OR SP, FP, ZERO
9D001428  8FBF001C   LW RA, 28(SP)
9D00142C  8FBE0018   LW FP, 24(SP)
9D001430  27BD0020   ADDIU SP, SP, 32
9D001434  03E00008   JR RA
9D001438  00000000   NOP
9D00143C  27BDFFD8   ADDIU SP, SP, -40
9D001440  AFBF0024   SW RA, 36(SP)
9D001444  AFBE0020   SW FP, 32(SP)
9D001448  03A0F025   OR FP, SP, ZERO
9D00144C  AFC40028   SW A0, 40(FP)
9D001450  AFC00010   SW ZERO, 16(FP)
9D001454  8FC20028   LW V0, 40(FP)
9D001458  1440000A   BNE V0, ZERO, 0x9D001484
9D00145C  00000000   NOP
9D001460  00001025   OR V0, ZERO, ZERO
9D001464  10000037   BEQ ZERO, ZERO, 0x9D001544
9D001468  00000000   NOP
9D00146C  8FC20028   LW V0, 40(FP)
9D001470  8C420000   LW V0, 0(V0)
9D001474  AFC20028   SW V0, 40(FP)
9D001478  8FC20010   LW V0, 16(FP)
9D00147C  24420001   ADDIU V0, V0, 1
9D001480  AFC20010   SW V0, 16(FP)
9D001484  8FC20028   LW V0, 40(FP)
9D001488  8C420000   LW V0, 0(V0)
9D00148C  1440FFF7   BNE V0, ZERO, 0x9D00146C
9D001490  00000000   NOP
9D001494  8FC20010   LW V0, 16(FP)
9D001498  AFC20014   SW V0, 20(FP)
9D00149C  8FC20010   LW V0, 16(FP)
9D0014A0  AFC20018   SW V0, 24(FP)
9D0014A4  10000007   BEQ ZERO, ZERO, 0x9D0014C4
9D0014A8  00000000   NOP
9D0014AC  8FC20028   LW V0, 40(FP)
9D0014B0  8C420004   LW V0, 4(V0)
9D0014B4  AFC20028   SW V0, 40(FP)
9D0014B8  8FC20014   LW V0, 20(FP)
9D0014BC  2442FFFF   ADDIU V0, V0, -1
9D0014C0  AFC20014   SW V0, 20(FP)
9D0014C4  8FC20014   LW V0, 20(FP)
9D0014C8  1C40FFF8   BGTZ V0, 0x9D0014AC
9D0014CC  00000000   NOP
9D0014D0  10000007   BEQ ZERO, ZERO, 0x9D0014F0
9D0014D4  00000000   NOP
9D0014D8  8FC20028   LW V0, 40(FP)
9D0014DC  8C420004   LW V0, 4(V0)
9D0014E0  AFC20028   SW V0, 40(FP)
9D0014E4  8FC20010   LW V0, 16(FP)
9D0014E8  24420001   ADDIU V0, V0, 1
9D0014EC  AFC20010   SW V0, 16(FP)
9D0014F0  8FC20028   LW V0, 40(FP)
9D0014F4  8C420004   LW V0, 4(V0)
9D0014F8  1440FFF7   BNE V0, ZERO, 0x9D0014D8
9D0014FC  00000000   NOP
9D001500  8FC40028   LW A0, 40(FP)
9D001504  0F400557   JAL LinkedListGetFirst
9D001508  00000000   NOP
9D00150C  AFC20028   SW V0, 40(FP)
9D001510  10000007   BEQ ZERO, ZERO, 0x9D001530
9D001514  00000000   NOP
9D001518  8FC20028   LW V0, 40(FP)
9D00151C  8C420004   LW V0, 4(V0)
9D001520  AFC20028   SW V0, 40(FP)
9D001524  8FC20018   LW V0, 24(FP)
9D001528  2442FFFF   ADDIU V0, V0, -1
9D00152C  AFC20018   SW V0, 24(FP)
9D001530  8FC20018   LW V0, 24(FP)
9D001534  1C40FFF8   BGTZ V0, 0x9D001518
9D001538  00000000   NOP
9D00153C  8FC20010   LW V0, 16(FP)
9D001540  24420001   ADDIU V0, V0, 1
9D001544  03C0E825   OR SP, FP, ZERO
9D001548  8FBF0024   LW RA, 36(SP)
9D00154C  8FBE0020   LW FP, 32(SP)
9D001550  27BD0028   ADDIU SP, SP, 40
9D001554  03E00008   JR RA
9D001558  00000000   NOP
9D00155C  27BDFFF0   ADDIU SP, SP, -16
9D001560  AFBE000C   SW FP, 12(SP)
9D001564  03A0F025   OR FP, SP, ZERO
9D001568  AFC40010   SW A0, 16(FP)
9D00156C  8FC20010   LW V0, 16(FP)
9D001570  1440000A   BNE V0, ZERO, 0x9D00159C
9D001574  00000000   NOP
9D001578  00001025   OR V0, ZERO, ZERO
9D00157C  1000000C   BEQ ZERO, ZERO, 0x9D0015B0
9D001580  00000000   NOP
9D001584  8FC20010   LW V0, 16(FP)
9D001588  8C420000   LW V0, 0(V0)
9D00158C  AFC20010   SW V0, 16(FP)
9D001590  8FC20000   LW V0, 0(FP)
9D001594  24420001   ADDIU V0, V0, 1
9D001598  AFC20000   SW V0, 0(FP)
9D00159C  8FC20010   LW V0, 16(FP)
9D0015A0  8C420000   LW V0, 0(V0)
9D0015A4  1440FFF7   BNE V0, ZERO, 0x9D001584
9D0015A8  00000000   NOP
9D0015AC  8FC20010   LW V0, 16(FP)
9D0015B0  03C0E825   OR SP, FP, ZERO
9D0015B4  8FBE000C   LW FP, 12(SP)
9D0015B8  27BD0010   ADDIU SP, SP, 16
9D0015BC  03E00008   JR RA
9D0015C0  00000000   NOP
9D0015C4  27BDFFF0   ADDIU SP, SP, -16
9D0015C8  AFBE000C   SW FP, 12(SP)
9D0015CC  03A0F025   OR FP, SP, ZERO
9D0015D0  AFC40010   SW A0, 16(FP)
9D0015D4  8FC20010   LW V0, 16(FP)
9D0015D8  1440000A   BNE V0, ZERO, 0x9D001604
9D0015DC  00000000   NOP
9D0015E0  00001025   OR V0, ZERO, ZERO
9D0015E4  1000000C   BEQ ZERO, ZERO, 0x9D001618
9D0015E8  00000000   NOP
9D0015EC  8FC20010   LW V0, 16(FP)
9D0015F0  8C420004   LW V0, 4(V0)
9D0015F4  AFC20010   SW V0, 16(FP)
9D0015F8  8FC20000   LW V0, 0(FP)
9D0015FC  24420001   ADDIU V0, V0, 1
9D001600  AFC20000   SW V0, 0(FP)
9D001604  8FC20010   LW V0, 16(FP)
9D001608  8C420004   LW V0, 4(V0)
9D00160C  1440FFF7   BNE V0, ZERO, 0x9D0015EC
9D001610  00000000   NOP
9D001614  8FC20010   LW V0, 16(FP)
9D001618  03C0E825   OR SP, FP, ZERO
9D00161C  8FBE000C   LW FP, 12(SP)
9D001620  27BD0010   ADDIU SP, SP, 16
9D001624  03E00008   JR RA
9D001628  00000000   NOP
9D00162C  27BDFFF0   ADDIU SP, SP, -16
9D001630  AFBE000C   SW FP, 12(SP)
9D001634  03A0F025   OR FP, SP, ZERO
9D001638  AFC40010   SW A0, 16(FP)
9D00163C  AFC50014   SW A1, 20(FP)
9D001640  8FC20010   LW V0, 16(FP)
9D001644  10400004   BEQ V0, ZERO, 0x9D001658
9D001648  00000000   NOP
9D00164C  8FC20014   LW V0, 20(FP)
9D001650  14400004   BNE V0, ZERO, 0x9D001664
9D001654  00000000   NOP
9D001658  00001025   OR V0, ZERO, ZERO
9D00165C  1000000C   BEQ ZERO, ZERO, 0x9D001690
9D001660  00000000   NOP
9D001664  8FC20010   LW V0, 16(FP)
9D001668  8C420008   LW V0, 8(V0)
9D00166C  AFC20000   SW V0, 0(FP)
9D001670  8FC20014   LW V0, 20(FP)
9D001674  8C430008   LW V1, 8(V0)
9D001678  8FC20010   LW V0, 16(FP)
9D00167C  AC430008   SW V1, 8(V0)
9D001680  8FC20014   LW V0, 20(FP)
9D001684  8FC30000   LW V1, 0(FP)
9D001688  AC430008   SW V1, 8(V0)
9D00168C  24020001   ADDIU V0, ZERO, 1
9D001690  03C0E825   OR SP, FP, ZERO
9D001694  8FBE000C   LW FP, 12(SP)
9D001698  27BD0010   ADDIU SP, SP, 16
9D00169C  03E00008   JR RA
9D0016A0  00000000   NOP
9D0016A4  27BDFFE0   ADDIU SP, SP, -32
9D0016A8  AFBF001C   SW RA, 28(SP)
9D0016AC  AFBE0018   SW FP, 24(SP)
9D0016B0  03A0F025   OR FP, SP, ZERO
9D0016B4  AFC40020   SW A0, 32(FP)
9D0016B8  AFC00014   SW ZERO, 20(FP)
9D0016BC  8FC20020   LW V0, 32(FP)
9D0016C0  14400004   BNE V0, ZERO, 0x9D0016D4
9D0016C4  00000000   NOP
9D0016C8  00001025   OR V0, ZERO, ZERO
9D0016CC  1000003A   BEQ ZERO, ZERO, 0x9D0017B8
9D0016D0  00000000   NOP
9D0016D4  8FC40020   LW A0, 32(FP)
9D0016D8  0F40050F   JAL LinkedListSize
9D0016DC  00000000   NOP
9D0016E0  AFC20010   SW V0, 16(FP)
9D0016E4  10000007   BEQ ZERO, ZERO, 0x9D001704
9D0016E8  00000000   NOP
9D0016EC  8FC20020   LW V0, 32(FP)
9D0016F0  8C420000   LW V0, 0(V0)
9D0016F4  AFC20020   SW V0, 32(FP)
9D0016F8  8FC20014   LW V0, 20(FP)
9D0016FC  24420001   ADDIU V0, V0, 1
9D001700  AFC20014   SW V0, 20(FP)
9D001704  8FC20020   LW V0, 32(FP)
9D001708  8C420000   LW V0, 0(V0)
9D00170C  1440FFF7   BNE V0, ZERO, 0x9D0016EC
9D001710  00000000   NOP
9D001714  2404005B   ADDIU A0, ZERO, 91
9D001718  0F401399   JAL putchar
9D00171C  00000000   NOP
9D001720  1000000E   BEQ ZERO, ZERO, 0x9D00175C
9D001724  00000000   NOP
9D001728  8FC20020   LW V0, 32(FP)
9D00172C  8C420008   LW V0, 8(V0)
9D001730  00402825   OR A1, V0, ZERO
9D001734  3C029D00   LUI V0, -25344
9D001738  24445064   ADDIU A0, V0, 20580
9D00173C  0F401326   JAL __wrap_printf, _printf_s, _dprintf_s
9D001740  00000000   NOP
9D001744  8FC20020   LW V0, 32(FP)
9D001748  8C420004   LW V0, 4(V0)
9D00174C  AFC20020   SW V0, 32(FP)
9D001750  8FC20010   LW V0, 16(FP)
9D001754  2442FFFF   ADDIU V0, V0, -1
9D001758  AFC20010   SW V0, 16(FP)
9D00175C  8FC20010   LW V0, 16(FP)
9D001760  28420002   SLTI V0, V0, 2
9D001764  1040FFF0   BEQ V0, ZERO, 0x9D001728
9D001768  00000000   NOP
9D00176C  2404005D   ADDIU A0, ZERO, 93
9D001770  0F401399   JAL putchar
9D001774  00000000   NOP
9D001778  8FC40020   LW A0, 32(FP)
9D00177C  0F400557   JAL LinkedListGetFirst
9D001780  00000000   NOP
9D001784  AFC20020   SW V0, 32(FP)
9D001788  10000007   BEQ ZERO, ZERO, 0x9D0017A8
9D00178C  00000000   NOP
9D001790  8FC20020   LW V0, 32(FP)
9D001794  8C420004   LW V0, 4(V0)
9D001798  AFC20020   SW V0, 32(FP)
9D00179C  8FC20014   LW V0, 20(FP)
9D0017A0  2442FFFF   ADDIU V0, V0, -1
9D0017A4  AFC20014   SW V0, 20(FP)
9D0017A8  8FC20014   LW V0, 20(FP)
9D0017AC  1C40FFF8   BGTZ V0, 0x9D001790
9D0017B0  00000000   NOP
9D0017B4  24020001   ADDIU V0, ZERO, 1
9D0017B8  03C0E825   OR SP, FP, ZERO
9D0017BC  8FBF001C   LW RA, 28(SP)
9D0017C0  8FBE0018   LW FP, 24(SP)
9D0017C4  27BD0020   ADDIU SP, SP, 32
9D0017C8  03E00008   JR RA
9D0017CC  00000000   NOP
---  d:/cadence/spb_data/nehu/lab05/lab_5.x/board.c  ----------------------------------------------------
1:                   /*
2:                    * File:   BOARD.h
3:                    * Author: Max Dunne
4:                    *
5:                    * Created on December 19, 2012, 2:08 PM
6:                    * 
7:                    * Much of the odder code come directly from the microchip peripheral library as reinventing the wheel seemed
8:                    * not necessary
9:                    */
10:                  
11:                  #include "BOARD.h"
12:                  
13:                  // Microchip Libraries
14:                  #ifdef PIC32
15:                  #include <xc.h>
16:                  #endif
17:                  #include <stdint.h>
18:                  #include <stdio.h>
19:                  #include <stdlib.h>
20:                  
21:                  // no legacy libc
22:                  #ifdef PIC32
23:                  #ifdef __C32_LEGACY_LIBC__
24:                  #error CSE13E Can not be done with legacy libc. Ensure project properties -> XC32 (Global Options) -> Use legacy libc is UN checked. 
25:                  #endif
26:                  #endif
27:                  
28:                  /*******************************************************************************
29:                   * PRAGMAS                                                                     *
30:                   ******************************************************************************/
31:                  // Configuration Bits
32:                  // SYSCLK = 80MHz
33:                  // PBCLK  = 20MHz
34:                  // using POSC w/ PLL, XT mode
35:                  #ifdef PIC32
36:                  #pragma config FPBDIV     = DIV_4
37:                  #pragma config FPLLIDIV   = DIV_2     // Set the PLL input divider to 2, seems to
38:                  #pragma config IESO       = OFF       // Internal/External Switch
39:                  #pragma config POSCMOD    = XT        // Primary Oscillator Configuration for XT osc mode
40:                  #pragma config OSCIOFNC   = OFF       // Disable clock signal output
41:                  #pragma config FCKSM      = CSECMD    // Clock Switching and Monitor Selection
42:                  #pragma config WDTPS      = PS1       // Specify the watchdog timer interval (unused)
43:                  #pragma config FWDTEN     = OFF       // Disable the watchdog timer
44:                  #pragma config ICESEL     = ICS_PGx2  // Allow for debugging with the Uno32
45:                  #pragma config PWP        = OFF       // Keep the program flash writeable
46:                  #pragma config BWP        = OFF       // Keep the boot flash writeable
47:                  #pragma config CP         = OFF       // Disable code protect
48:                  #pragma config FNOSC 		= PRIPLL	//Oscillator Selection Bits
49:                  #pragma config FSOSCEN 		= OFF		//Secondary Oscillator Enable
50:                  #pragma config FPLLMUL 		= MUL_20	//PLL Multiplier
51:                  #pragma config FPLLODIV 	= DIV_1 	//System PLL Output Clock Divid
52:                  #endif
53:                  /*******************************************************************************
54:                   * PRIVATE #DEFINES                                                            *
55:                   ******************************************************************************/
56:                  #define SYSTEM_CLOCK 80000000L
57:                  #define PB_CLOCK (SYSTEM_CLOCK / 4)
58:                  #define QUEUESIZE 512
59:                  //#define TurnOffAndClearInterrupt(Name) INTEnable(Name,INT_DISABLED); INTClearFlag(Name)
60:                  #define TurnPortToInput(Tris) Tris=0xFFFF
61:                  
62:                  
63:                  //#define LAB10_READ_OVERWRITE
64:                  /*******************************************************************************
65:                   * PRIVATE DATATYPES                                                           *
66:                   ******************************************************************************/
67:                  
68:                  
69:                  
70:                  /*******************************************************************************
71:                   * PRIVATE FUNCTION PROTOTYPES                                                 *
72:                   ******************************************************************************/
73:                  void SERIAL_Init(void);
74:                  
75:                  /*******************************************************************************
76:                   * PRIVATE VARIABLES                                                           *
77:                   ******************************************************************************/
78:                  
79:                  
80:                  /*******************************************************************************
81:                   * PUBLIC FUNCTIONS                                                            *
82:                   ******************************************************************************/
83:                  
84:                  /**
85:                   * Function: BOARD_Init(void)
86:                   * @param None
87:                   * @return None
88:                   * @brief Initializes the board for 80MHz SYSCLK and 20MHz PBCLK.
89:                   */
90:                  void BOARD_Init() {
91:                  #ifdef PIC32
92:                      //seeds the random number generator with the time
93:                      char seed1[] = __TIME__;
94:                      unsigned int seed2 = (((unsigned int) (seed1[7] ^ seed1[2])) << 8) | ((unsigned int) (seed1[4] ^ seed1[6]));
95:                      srand(seed2);
96:                  
97:                      //enables the interrupt system in the new style
98:                      
99:                      //INTConfigureSystem(INT_SYSTEM_CONFIG_MULT_VECTOR); 
100:                     unsigned int val;
101:                 
102:                     // set the CP0 cause IV bit high
103:                     asm volatile("mfc0   %0,$13" : "=r"(val));
104:                     val |= 0x00800000;
105:                     asm volatile("mtc0   %0,$13" : "+r"(val));
106:                     INTCONSET = _INTCON_MVEC_MASK;
107:                     
108:                     //INTEnableInterrupts();
109:                     int status;
110:                     asm volatile("ei    %0" : "=r"(status));
111:                     // Initialize for serial
112:                     SERIAL_Init();
113:                 #endif
114:                 }
115:                 
116:                 /**
117:                  * Function: BOARD_End(void)
118:                  * @param None
119:                  * @return None
120:                  * @brief shuts down all peripherals except for serial and A/D. Turns all pins
121:                  * into input
122:                  * @author Max Dunne, 2013.09.20  */
123:                 void BOARD_End() {
124:                 #ifdef PIC32
125:                     // set all interrupt enable flags to zero
126:                     IEC0 = 0;
127:                     IEC1 = 0;
128:                 
129:                     //set all flags to zero
130:                     IFS0 = 0;
131:                     IFS1 = 0;
132:                 
133:                     // disable timer interrupts, clear flags and turn off module
134:                     T1CON = 0;
135:                     T2CON = 0;
136:                     T3CON = 0;
137:                     T4CON = 0;
138:                     T5CON = 0;
139:                 
140:                 
141:                     // disable input capture interrupts, clear flags and turn off module
142:                     IC1CONCLR = _IC1CON_ICM_MASK;
143:                     IC2CONCLR = _IC2CON_ICM_MASK;
144:                     IC3CONCLR = _IC3CON_ICM_MASK;
145:                     IC4CONCLR = _IC4CON_ICM_MASK;
146:                     IC5CONCLR = _IC5CON_ICM_MASK;
147:                 
148:                     // disable output compare interrupts, clear flags and turn off module
149:                     OC1CONCLR = _OC1CON_ON_MASK;
150:                     OC2CONCLR = _OC2CON_ON_MASK;
151:                     OC3CONCLR = _OC3CON_ON_MASK;
152:                     OC4CONCLR = _OC4CON_ON_MASK;
153:                     OC5CONCLR = _OC5CON_ON_MASK;
154:                 
155:                     // disable I2C interrupts, clear flags and turn off module
156:                     I2C1CONCLR = _I2C1CON_ON_MASK;
157:                     I2C2CONCLR = _I2C2CON_ON_MASK;
158:                 
159:                     //disable spi interrupts, clear flags and turn off module
160:                     SPI1CONCLR = _SPI1CON_ON_MASK;
161:                     SPI2CONCLR = _SPI2CON_ON_MASK;
162:                 
163:                     // disable external interrupts, clear flags and turn off module
164:                 
165:                     // set all ports to be digital inputs
166:                     TurnPortToInput(TRISB);
167:                     TurnPortToInput(TRISC);
168:                     TurnPortToInput(TRISD);
169:                     TurnPortToInput(TRISE);
170:                     TurnPortToInput(TRISF);
171:                     TurnPortToInput(TRISG);
172:                 
173:                 #else
174:                     exit(0);
175:                 #endif   
176:                 }
177:                 
178:                 /**
179:                  * Function: BOARD_GetPBClock(void)
180:                  * @param None
181:                  * @return
182:                  */
183:                 unsigned int BOARD_GetPBClock() {
184:                     return PB_CLOCK;
185:                 }
186:                 
187:                 /**
188:                  * Function: BOARD_GetSysClock(void)
189:                  * @param None
190:                  * @return
191:                  */
192:                 unsigned int BOARD_GetSysClock() {
193:                     return SYSTEM_CLOCK;
194:                 }
195:                 
196:                 /*******************************************************************************
197:                  * PRIVATE FUNCTIONS                                                           *
198:                  ******************************************************************************/
199:                 
200:                 /**
201:                  * @Function SERIAL_Init(void)
202:                  * @param none
203:                  * @return none
204:                  * @brief  Initializes the UART subsystem to 115200 and sets up the circular buffer
205:                  * @author Max Dunne, 2011.11.10 */
206:                 
207:                 void SERIAL_Init(void) {
208:                 #ifdef PIC32
209:                     // we first clear the Configs Register to ensure a blank state and peripheral is off.
210:                     U1MODE = 0;
211:                     U1STA = 0;
212:                     //UARTConfigure(UART1, 0x00);
213:                 
214:                     //we then calculate the required frequency, note that this comes from plib source to avoid rounding errors
215:                     int sourceClock = BOARD_GetPBClock() >> 3;
216:                     int brg = sourceClock / 115200;
217:                     brg++;
218:                     brg >>= 1;
219:                     brg--;
220:                     U1BRG = brg;
221:                     //UARTSetDataRate(UART1, PB_CLOCK, 115200);
222:                     //UARTSetFifoMode(UART1, UART_INTERRUPT_ON_RX_NOT_EMPTY | UART_INTERRUPT_ON_RX_NOT_EMPTY);
223:                 
224:                     //we now enable the device
225:                 
226:                     U1STAbits.UTXEN = 1;
227:                     U1STAbits.URXEN = 1;
228:                     U1MODEbits.UARTEN = 1;
229:                 
230:                     //UARTEnable(UART1, UART_ENABLE_FLAGS(UART_PERIPHERAL | UART_TX | UART_RX));
231:                     __XC_UART = 1;
232:                     //printf("\r\n%d\t%d",U1BRG,brg);
233:                 #endif
234:                 }
235:                 
236:                 
237:                 
238:                 /*******************************************************************************
239:                  * OVERRIDE FUNCTIONS                                                          *
240:                  ******************************************************************************/
241:                 
242:                 /**
243:                  * @Function read(int handle, void *buffer, unsigned int len)
244:                  * @param handle
245:                  * @param buffer
246:                  * @param len
247:                  * @return Returns the number of characters read into buffer
248:                  * @brief Overrides the built-in function called for scanf() to ensure proper functionality
249:                  */
250:                 #ifdef PIC32
251:                 #ifndef LAB10_READ_OVERWRITE
252:                 
253:                 int read(int handle, char *buffer, unsigned int len) {
254:                     int i;
255:                     if (handle == 0) {
256:                         while (!U1STAbits.URXDA) {
257:                             if (U1STAbits.OERR) {
258:                                 U1STAbits.OERR = 0;
259:                             }
260:                             continue;
261:                         }
262:                         i = 0;
263:                         while (U1STAbits.URXDA) {
264:                             char tmp = U1RXREG;
265:                             if (tmp == '\r') {
266:                                 tmp = '\n';
267:                             }
268:                             *(char*) buffer++ = tmp;
269:                             //WriteUART1(tmp);
270:                             U1TXREG = tmp;
271:                             i++;
272:                         }
273:                         return i;
274:                     }
275:                     return 0;
276:                 }
277:                 #endif
278:                 #endif
279:                 
280:                 
281:                 #ifdef BOARD_TEST
282:                 
283:                 int main(void) {
284:                     BOARD_Init();
285:                     printf("\r\nThis stub tests SERIAL Functionality with scanf");
286:                     printf("\r\nIt will intake integers and divide by 2");
287:                     printf("\r\n Peripheral Clock: %d", BOARD_GetPBClock());
288:                     printf("\r\n Peripheral Clock: %d\r\n", BOARD_GetSysClock());
289:                     char trash;
290:                     int input;
291:                     while (1) {
292:                         scanf("%d%c", &input, &trash);
293:                         printf("\r\nEntered: %d\t/2: %d\r\n", input, input / 2);
294:                     }
295:                     while (1);
296:                     return 0;
297:                 }
298:                 #endif
-----*  Optimizer-Generated Procedural Abstractions  *----------------------------------------------
9D001D58  27BDFFD0   ADDIU SP, SP, -48
9D001D5C  AFBF002C   SW RA, 44(SP)
9D001D60  AFBE0028   SW FP, 40(SP)
9D001D64  03A0F025   OR FP, SP, ZERO
9D001D68  3C029D00   LUI V0, -25344
9D001D6C  8C44504C   LW A0, 20556(V0)
9D001D70  2443504C   ADDIU V1, V0, 20556
9D001D74  8C630004   LW V1, 4(V1)
9D001D78  AFC4001C   SW A0, 28(FP)
9D001D7C  AFC30020   SW V1, 32(FP)
9D001D80  2442504C   ADDIU V0, V0, 20556
9D001D84  90420008   LBU V0, 8(V0)
9D001D88  A3C20024   SB V0, 36(FP)
9D001D8C  83C30023   LB V1, 35(FP)
9D001D90  83C2001E   LB V0, 30(FP)
9D001D94  00621026   XOR V0, V1, V0
9D001D98  7C021420   SEB V0, V0
9D001D9C  00021200   SLL V0, V0, 8
9D001DA0  83C40020   LB A0, 32(FP)
9D001DA4  83C30022   LB V1, 34(FP)
9D001DA8  00831826   XOR V1, A0, V1
9D001DAC  7C031C20   SEB V1, V1
9D001DB0  00431025   OR V0, V0, V1
9D001DB4  AFC20010   SW V0, 16(FP)
9D001DB8  0F40140C   JAL srand
9D001DBC  8FC40010   LW A0, 16(FP)
9D001DC0  40026800   MFC0 V0, Cause
9D001DC4  AFC20014   SW V0, 20(FP)
9D001DC8  8FC30014   LW V1, 20(FP)
9D001DCC  3C020080   LUI V0, 128
9D001DD0  00621025   OR V0, V1, V0
9D001DD4  AFC20014   SW V0, 20(FP)
9D001DD8  8FC20014   LW V0, 20(FP)
9D001DDC  40826800   MTC0 V0, Cause
9D001DE0  AFC20014   SW V0, 20(FP)
9D001DE4  3C02BF88   LUI V0, -16504
9D001DE8  24031000   ADDIU V1, ZERO, 4096
9D001DEC  AC431008   SW V1, 4104(V0)
9D001DF0  41626020   EI V0
9D001DF4  AFC20018   SW V0, 24(FP)
9D001DF8  0F4007F2   JAL SERIAL_Init
9D001DFC  00000000   NOP
9D001E00  00000000   NOP
9D001E04  03C0E825   OR SP, FP, ZERO
9D001E08  8FBF002C   LW RA, 44(SP)
9D001E0C  8FBE0028   LW FP, 40(SP)
9D001E10  27BD0030   ADDIU SP, SP, 48
9D001E14  03E00008   JR RA
9D001E18  00000000   NOP
9D001E1C  27BDFFF8   ADDIU SP, SP, -8
9D001E20  AFBE0004   SW FP, 4(SP)
9D001E24  03A0F025   OR FP, SP, ZERO
9D001E28  3C02BF88   LUI V0, -16504
9D001E2C  AC401060   SW ZERO, 4192(V0)
9D001E30  3C02BF88   LUI V0, -16504
9D001E34  AC401070   SW ZERO, 4208(V0)
9D001E38  3C02BF88   LUI V0, -16504
9D001E3C  AC401030   SW ZERO, 4144(V0)
9D001E40  3C02BF88   LUI V0, -16504
9D001E44  AC401040   SW ZERO, 4160(V0)
9D001E48  3C02BF80   LUI V0, -16512
9D001E4C  AC400600   SW ZERO, 1536(V0)
9D001E50  3C02BF80   LUI V0, -16512
9D001E54  AC400800   SW ZERO, 2048(V0)
9D001E58  3C02BF80   LUI V0, -16512
9D001E5C  AC400A00   SW ZERO, 2560(V0)
9D001E60  3C02BF80   LUI V0, -16512
9D001E64  AC400C00   SW ZERO, 3072(V0)
9D001E68  3C02BF80   LUI V0, -16512
9D001E6C  AC400E00   SW ZERO, 3584(V0)
9D001E70  3C02BF80   LUI V0, -16512
9D001E74  24030007   ADDIU V1, ZERO, 7
9D001E78  AC432004   SW V1, 8196(V0)
9D001E7C  3C02BF80   LUI V0, -16512
9D001E80  24030007   ADDIU V1, ZERO, 7
9D001E84  AC432204   SW V1, 8708(V0)
9D001E88  3C02BF80   LUI V0, -16512
9D001E8C  24030007   ADDIU V1, ZERO, 7
9D001E90  AC432404   SW V1, 9220(V0)
9D001E94  3C02BF80   LUI V0, -16512
9D001E98  24030007   ADDIU V1, ZERO, 7
9D001E9C  AC432604   SW V1, 9732(V0)
9D001EA0  3C02BF80   LUI V0, -16512
9D001EA4  24030007   ADDIU V1, ZERO, 7
9D001EA8  AC432804   SW V1, 10244(V0)
9D001EAC  3C02BF80   LUI V0, -16512
9D001EB0  34038000   ORI V1, ZERO, -32768
9D001EB4  AC433004   SW V1, 12292(V0)
9D001EB8  3C02BF80   LUI V0, -16512
9D001EBC  34038000   ORI V1, ZERO, -32768
9D001EC0  AC433204   SW V1, 12804(V0)
9D001EC4  3C02BF80   LUI V0, -16512
9D001EC8  34038000   ORI V1, ZERO, -32768
9D001ECC  AC433404   SW V1, 13316(V0)
9D001ED0  3C02BF80   LUI V0, -16512
9D001ED4  34038000   ORI V1, ZERO, -32768
9D001ED8  AC433604   SW V1, 13828(V0)
9D001EDC  3C02BF80   LUI V0, -16512
9D001EE0  34038000   ORI V1, ZERO, -32768
9D001EE4  AC433804   SW V1, 14340(V0)
9D001EE8  3C02BF80   LUI V0, -16512
9D001EEC  34038000   ORI V1, ZERO, -32768
9D001EF0  AC435004   SW V1, 20484(V0)
9D001EF4  3C02BF80   LUI V0, -16512
9D001EF8  34038000   ORI V1, ZERO, -32768
9D001EFC  AC435204   SW V1, 20996(V0)
9D001F00  3C02BF80   LUI V0, -16512
9D001F04  34038000   ORI V1, ZERO, -32768
9D001F08  AC435804   SW V1, 22532(V0)
9D001F0C  3C02BF80   LUI V0, -16512
9D001F10  34038000   ORI V1, ZERO, -32768
9D001F14  AC435A04   SW V1, 23044(V0)
9D001F18  3C02BF88   LUI V0, -16504
9D001F1C  3403FFFF   ORI V1, ZERO, -1
9D001F20  AC436040   SW V1, 24640(V0)
9D001F24  3C02BF88   LUI V0, -16504
9D001F28  3403FFFF   ORI V1, ZERO, -1
9D001F2C  AC436080   SW V1, 24704(V0)
9D001F30  3C02BF88   LUI V0, -16504
9D001F34  3403FFFF   ORI V1, ZERO, -1
9D001F38  AC4360C0   SW V1, 24768(V0)
9D001F3C  3C02BF88   LUI V0, -16504
9D001F40  3403FFFF   ORI V1, ZERO, -1
9D001F44  AC436100   SW V1, 24832(V0)
9D001F48  3C02BF88   LUI V0, -16504
9D001F4C  3403FFFF   ORI V1, ZERO, -1
9D001F50  AC436140   SW V1, 24896(V0)
9D001F54  3C02BF88   LUI V0, -16504
9D001F58  3403FFFF   ORI V1, ZERO, -1
9D001F5C  AC436180   SW V1, 24960(V0)
9D001F60  00000000   NOP
9D001F64  03C0E825   OR SP, FP, ZERO
9D001F68  8FBE0004   LW FP, 4(SP)
9D001F6C  27BD0008   ADDIU SP, SP, 8
9D001F70  03E00008   JR RA
9D001F74  00000000   NOP
9D001F78  27BDFFF8   ADDIU SP, SP, -8
9D001F7C  AFBE0004   SW FP, 4(SP)
9D001F80  03A0F025   OR FP, SP, ZERO
9D001F84  3C020131   LUI V0, 305
9D001F88  34422D00   ORI V0, V0, 11520
9D001F8C  03C0E825   OR SP, FP, ZERO
9D001F90  8FBE0004   LW FP, 4(SP)
9D001F94  27BD0008   ADDIU SP, SP, 8
9D001F98  03E00008   JR RA
9D001F9C  00000000   NOP
9D001FA0  27BDFFF8   ADDIU SP, SP, -8
9D001FA4  AFBE0004   SW FP, 4(SP)
9D001FA8  03A0F025   OR FP, SP, ZERO
9D001FAC  3C0204C4   LUI V0, 1220
9D001FB0  3442B400   ORI V0, V0, -19456
9D001FB4  03C0E825   OR SP, FP, ZERO
9D001FB8  8FBE0004   LW FP, 4(SP)
9D001FBC  27BD0008   ADDIU SP, SP, 8
9D001FC0  03E00008   JR RA
9D001FC4  00000000   NOP
9D001FC8  27BDFFE0   ADDIU SP, SP, -32
9D001FCC  AFBF001C   SW RA, 28(SP)
9D001FD0  AFBE0018   SW FP, 24(SP)
9D001FD4  03A0F025   OR FP, SP, ZERO
9D001FD8  3C02BF80   LUI V0, -16512
9D001FDC  AC406000   SW ZERO, 24576(V0)
9D001FE0  3C02BF80   LUI V0, -16512
9D001FE4  AC406010   SW ZERO, 24592(V0)
9D001FE8  0F4007DE   JAL BOARD_GetPBClock
9D001FEC  00000000   NOP
9D001FF0  000210C2   SRL V0, V0, 3
9D001FF4  AFC20010   SW V0, 16(FP)
9D001FF8  8FC20010   LW V0, 16(FP)
9D001FFC  3C0391A2   LUI V1, -28254
9D002000  3463B3C5   ORI V1, V1, -19515
9D002004  00430018   MULT 0, V0, V1
9D002008  00001810   MFHI V1
9D00200C  00621821   ADDU V1, V1, V0
9D002010  00031C03   SRA V1, V1, 16
9D002014  000217C3   SRA V0, V0, 31
9D002018  00621023   SUBU V0, V1, V0
9D00201C  AFC20014   SW V0, 20(FP)
9D002020  8FC20014   LW V0, 20(FP)
9D002024  24420001   ADDIU V0, V0, 1
9D002028  AFC20014   SW V0, 20(FP)
9D00202C  8FC20014   LW V0, 20(FP)
9D002030  00021043   SRA V0, V0, 1
9D002034  AFC20014   SW V0, 20(FP)
9D002038  8FC20014   LW V0, 20(FP)
9D00203C  2442FFFF   ADDIU V0, V0, -1
9D002040  AFC20014   SW V0, 20(FP)
9D002044  8FC30014   LW V1, 20(FP)
9D002048  3C02BF80   LUI V0, -16512
9D00204C  AC436040   SW V1, 24640(V0)
9D002050  3C03BF80   LUI V1, -16512
9D002054  8C626010   LW V0, 24592(V1)
9D002058  24040001   ADDIU A0, ZERO, 1
9D00205C  7C825284   INS V0, A0, 10, 1
9D002060  AC626010   SW V0, 24592(V1)
9D002064  3C03BF80   LUI V1, -16512
9D002068  8C626010   LW V0, 24592(V1)
9D00206C  24040001   ADDIU A0, ZERO, 1
9D002070  7C826304   INS V0, A0, 12, 1
9D002074  AC626010   SW V0, 24592(V1)
9D002078  3C03BF80   LUI V1, -16512
9D00207C  94626000   LHU V0, 24576(V1)
9D002080  24040001   ADDIU A0, ZERO, 1
9D002084  7C827BC4   INS V0, A0, 15, 1
9D002088  A4626000   SH V0, 24576(V1)
9D00208C  24020001   ADDIU V0, ZERO, 1
9D002090  AF828010   SW V0, -32752(GP)
9D002094  00000000   NOP
9D002098  03C0E825   OR SP, FP, ZERO
9D00209C  8FBF001C   LW RA, 28(SP)
9D0020A0  8FBE0018   LW FP, 24(SP)
9D0020A4  27BD0020   ADDIU SP, SP, 32
9D0020A8  03E00008   JR RA
9D0020AC  00000000   NOP
9D0020B0  27BDFFF0   ADDIU SP, SP, -16
9D0020B4  AFBE000C   SW FP, 12(SP)
9D0020B8  03A0F025   OR FP, SP, ZERO
9D0020BC  AFC40010   SW A0, 16(FP)
9D0020C0  AFC50014   SW A1, 20(FP)
9D0020C4  AFC60018   SW A2, 24(FP)
9D0020C8  8FC20010   LW V0, 16(FP)
9D0020CC  14400034   BNE V0, ZERO, 0x9D0021A0
9D0020D0  00000000   NOP
9D0020D4  1000000C   BEQ ZERO, ZERO, 0x9D002108
9D0020D8  00000000   NOP
9D0020DC  3C02BF80   LUI V0, -16512
9D0020E0  8C426010   LW V0, 24592(V0)
9D0020E4  7C420040   EXT V0, V0, 1, 1
9D0020E8  304200FF   ANDI V0, V0, 255
9D0020EC  10400005   BEQ V0, ZERO, 0x9D002104
9D0020F0  00000000   NOP
9D0020F4  3C03BF80   LUI V1, -16512
9D0020F8  8C626010   LW V0, 24592(V1)
9D0020FC  7C020844   INS V0, ZERO, 1, 1
9D002100  AC626010   SW V0, 24592(V1)
9D002104  00000000   NOP
9D002108  3C02BF80   LUI V0, -16512
9D00210C  8C426010   LW V0, 24592(V0)
9D002110  7C420000   EXT V0, V0, 0, 1
9D002114  304200FF   ANDI V0, V0, 255
9D002118  1040FFF0   BEQ V0, ZERO, 0x9D0020DC
9D00211C  00000000   NOP
9D002120  AFC00000   SW ZERO, 0(FP)
9D002124  10000015   BEQ ZERO, ZERO, 0x9D00217C
9D002128  00000000   NOP
9D00212C  3C02BF80   LUI V0, -16512
9D002130  8C426030   LW V0, 24624(V0)
9D002134  A3C20004   SB V0, 4(FP)
9D002138  83C30004   LB V1, 4(FP)
9D00213C  2402000D   ADDIU V0, ZERO, 13
9D002140  14620003   BNE V1, V0, 0x9D002150
9D002144  00000000   NOP
9D002148  2402000A   ADDIU V0, ZERO, 10
9D00214C  A3C20004   SB V0, 4(FP)
9D002150  8FC20014   LW V0, 20(FP)
9D002154  24430001   ADDIU V1, V0, 1
9D002158  AFC30014   SW V1, 20(FP)
9D00215C  93C30004   LBU V1, 4(FP)
9D002160  A0430000   SB V1, 0(V0)
9D002164  83C30004   LB V1, 4(FP)
9D002168  3C02BF80   LUI V0, -16512
9D00216C  AC436020   SW V1, 24608(V0)
9D002170  8FC20000   LW V0, 0(FP)
9D002174  24420001   ADDIU V0, V0, 1
9D002178  AFC20000   SW V0, 0(FP)
9D00217C  3C02BF80   LUI V0, -16512
9D002180  8C426010   LW V0, 24592(V0)
9D002184  7C420000   EXT V0, V0, 0, 1
9D002188  304200FF   ANDI V0, V0, 255
9D00218C  1440FFE7   BNE V0, ZERO, 0x9D00212C
9D002190  00000000   NOP
9D002194  8FC20000   LW V0, 0(FP)
9D002198  10000002   BEQ ZERO, ZERO, 0x9D0021A4
9D00219C  00000000   NOP
9D0021A0  00001025   OR V0, ZERO, ZERO
9D0021A4  03C0E825   OR SP, FP, ZERO
9D0021A8  8FBE000C   LW FP, 12(SP)
9D0021AC  27BD0010   ADDIU SP, SP, 16
9D0021B0  03E00008   JR RA
9D0021B4  00000000   NOP
---  C:/Users//.mchp_packs/Microchip/PIC32MX_DFP/1.5.259/xc32/startup/crt0.S  -------------------
BFC00000  0FF00002   JAL _startup
BFC00004  00000000   NOP
BFC00008  401A6000   MFC0 K0, Status
BFC0000C  7F5A04C0   EXT K0, K0, 19, 1
BFC00010  13400005   BEQ K0, ZERO, _no_nmi
BFC00014  00000000   NOP
BFC00018  3C1A9D00   LUI K0, -25344
BFC00020  03400008   JR K0
BFC00024  00000000   NOP
BFC00028  3C1DA000   LUI SP, -24576
BFC00030  3C1CA001   LUI GP, -24575
BFC00038  40096002   MFC0 T1, SRSCtl
BFC0003C  01205820   ADD T3, T1, ZERO
BFC00040  7D2A1E80   EXT T2, T1, 26, 4
BFC00044  7D494984   INS T1, T2, 6, 4
BFC00048  40896002   MTC0 T1, SRSCtl
BFC0004C  000000C0   EHB
BFC00050  41DCE000   WRPGPR GP, GP
BFC00054  408B6002   MTC0 T3, SRSCtl
BFC00058  000000C0   EHB
BFC0005C  3C089D00   LUI T0, -25344
BFC00064  0100F809   JALR T0
BFC00068  00000000   NOP
BFC0006C  3C08A000   LUI T0, -24576
BFC00074  3C09A000   LUI T1, -24576
BFC0007C  10000003   BEQ ZERO, ZERO, _bss_check
BFC00080  00000000   NOP
BFC00084  AD000000   SW ZERO, 0(T0)
BFC00088  25080004   ADDIU T0, T0, 4
BFC0008C  0109082B   SLTU AT, T0, T1
BFC00094  00000000   NOP
BFC00098  3C089D00   LUI T0, -25344
BFC000A0  0100F809   JALR T0
BFC000A4  00000000   NOP
BFC000A8  3C090000   LUI T1, 0
BFC000B0  11200010   BEQ T1, ZERO, _ramfunc_done
BFC000B4  00000000   NOP
BFC000B8  3C090000   LUI T1, 0
BFC000C0  3C0ABF88   LUI T2, -16504
BFC000C8  AD490000   SW T1, 0(T2)
BFC000CC  3C090000   LUI T1, 0
BFC000D4  3C0ABF88   LUI T2, -16504
BFC000DC  AD490000   SW T1, 0(T2)
BFC000E0  3C090000   LUI T1, 0
BFC000E8  3C0ABF88   LUI T2, -16504
BFC000F0  AD490000   SW T1, 0(T2)
BFC000F4  40804800   MTC0 ZERO, Count
BFC000F8  240AFFFF   ADDIU T2, ZERO, -1
BFC000FC  408A5800   MTC0 T2, Compare
BFC00100  3C080040   LUI T0, 64
BFC00104  400A6000   MFC0 T2, Status
BFC00108  010A5025   OR T2, T0, T2
BFC0010C  408A6000   MTC0 T2, Status
BFC00110  3C099FC0   LUI T1, -24640
BFC00118  000000C0   EHB
BFC0011C  40897801   MTC0 T1, EBase
BFC00120  3C090000   LUI T1, 0
BFC00128  240A0000   ADDIU T2, ZERO, 0
BFC0012C  7D2A4944   INS T2, T1, 5, 5
BFC00130  408A6001   MTC0 T2, IntCtl
BFC00134  3C090080   LUI T1, 128
BFC00138  40896800   MTC0 T1, Cause
BFC0013C  40088000   MFC0 T0, Config
BFC00140  7D090580   EXT T1, T0, 22, 1
BFC00144  00094C40   SLL T1, T1, 17
BFC00148  40086000   MFC0 T0, Status
BFC0014C  3C010058   LUI AT, 88
BFC00154  01284025   OR T0, T1, T0
BFC00158  40886000   MTC0 T0, Status
BFC0015C  000000C0   EHB
BFC00160  3C089D00   LUI T0, -25344
BFC00168  0100F809   JALR T0
BFC0016C  00000000   NOP
BFC00170  40086000   MFC0 T0, Status
BFC00174  3C01FFBF   LUI AT, -65
BFC00180  40886000   MTC0 T0, Status
BFC00184  30840000   ANDI A0, A0, 0
BFC00188  30A50000   ANDI A1, A1, 0
BFC0018C  3C089D00   LUI T0, -25344
BFC00194  01000008   JR T0
BFC00198  00000000   NOP
BFC00380  3C1A9D00   LUI K0, -25344
BFC00388  03400008   JR K0
BFC0038C  00000000   NOP
9FC01180  3C1A9D00   LUI K0, -25344
9FC01188  03400008   JR K0
9FC0118C  00000000   NOP
9D00493C  3C040000   LUI A0, 0
9D004940  27BDFFE8   ADDIU SP, SP, -24
9D004944  24840000   ADDIU A0, A0, 0
9D004948  10800003   BEQ A0, ZERO, 0x9D004958
9D00494C  AFBF0014   SW RA, 20(SP)
9D004950  0080F809   JALR A0
9D004954  00000000   NOP
9D004958  30840000   ANDI A0, A0, 0
9D00495C  30A50000   ANDI A1, A1, 0
9D004960  3C089D00   LUI T0, -25344
9D004968  0100F809   JALR T0
9D00496C  00000000   NOP
9D004970  3C029D00   LUI V0, -25344
9D004978  10400003   BEQ V0, ZERO, 0x9D004988
9D00497C  00000000   NOP
9D004980  0040F809   JALR V0
9D004984  00000000   NOP
9D004988  1000FFF9   BEQ ZERO, ZERO, __crt0_exit
9D00498C  00000000   NOP
---  /data01/build/bamboo/xml-data/build-dir/M32DEV-GMB34-JOB1/src/xc32-musl-stdlib/musl/musl-1.1.18/src/string/xc32/strlen.c
-----*  Optimizer-Generated Procedural Abstractions  *----------------------------------------------
9D005018  00801025   OR V0, A0, ZERO
9D00501C  80430000   LB V1, 0(V0)
9D005020  5460FFFE   BNEL V1, ZERO, 0x9D00501C
9D005024  24420001   ADDIU V0, V0, 1
9D005028  03E00008   JR RA
9D00502C  00441023   SUBU V0, V0, A0
9D005030  2484FFFF   ADDIU A0, A0, -1
---  /data01/build/bamboo/xml-data/build-dir/M32DEV-GMB34-JOB1/src/xc32-musl-stdlib/musl/musl-1.1.18/src/string/xc32/memset.c
-----*  Optimizer-Generated Procedural Abstractions  *----------------------------------------------
9D004E88  00801025   OR V0, A0, ZERO
9D004E8C  00863021   ADDU A2, A0, A2
9D004E90  00801825   OR V1, A0, ZERO
9D004E94  14660003   BNE V1, A2, 0x9D004EA4
9D004E98  24630001   ADDIU V1, V1, 1
9D004E9C  03E00008   JR RA
9D004EA0  00000000   NOP
9D004EA4  1000FFFB   BEQ ZERO, ZERO, 0x9D004E94
9D004EA8  A065FFFF   SB A1, -1(V1)
---  /data01/build/bamboo/xml-data/build-dir/M32DEV-GMB34-JOB1/src/xc32-musl-stdlib/musl/musl-1.1.18/src/string/xc32/memcpy.c
-----*  Optimizer-Generated Procedural Abstractions  *----------------------------------------------
9D004DBC  00801025   OR V0, A0, ZERO
9D004DC0  00001825   OR V1, ZERO, ZERO
9D004DC4  14C30003   BNE A2, V1, 0x9D004DD4
9D004DC8  00A33821   ADDU A3, A1, V1
9D004DCC  03E00008   JR RA
9D004DD0  00000000   NOP
9D004DD4  90E70000   LBU A3, 0(A3)
9D004DD8  00432021   ADDU A0, V0, V1
9D004DDC  24630001   ADDIU V1, V1, 1
9D004DE0  1000FFF8   BEQ ZERO, ZERO, 0x9D004DC4
9D004DE4  A0870000   SB A3, 0(A0)
---  /data01/build/bamboo/xml-data/build-dir/M32DEV-GMB34-JOB1/src/xc32-musl-stdlib/musl/musl-1.1.18/src/stdlib/atoi.c
-----*  Optimizer-Generated Procedural Abstractions  *----------------------------------------------
9D004434  24050020   ADDIU A1, ZERO, 32
9D004438  80820000   LB V0, 0(A0)
9D004450  2403002B   ADDIU V1, ZERO, 43
9D004454  1043000A   BEQ V0, V1, 0x9D004480
9D004458  2403002D   ADDIU V1, ZERO, 45
9D00445C  14430003   BNE V0, V1, 0x9D00446C
9D004460  00002825   OR A1, ZERO, ZERO
9D004464  24050001   ADDIU A1, ZERO, 1
9D004468  24840001   ADDIU A0, A0, 1
9D00446C  00001025   OR V0, ZERO, ZERO
9D004470  10000007   BEQ ZERO, ZERO, 0x9D004490
9D004474  2407000A   ADDIU A3, ZERO, 10
9D004478  1000FFEF   BEQ ZERO, ZERO, 0x9D004438
9D00447C  24840001   ADDIU A0, A0, 1
9D004480  1000FFF9   BEQ ZERO, ZERO, 0x9D004468
9D004484  00002825   OR A1, ZERO, ZERO
9D004488  24840001   ADDIU A0, A0, 1
9D00448C  00431023   SUBU V0, V0, V1
9D004490  80830000   LB V1, 0(A0)
9D004494  2463FFD0   ADDIU V1, V1, -48
9D004498  2C66000A   SLTIU A2, V1, 10
9D00449C  54C0FFFA   BNEL A2, ZERO, 0x9D004488
9D0044A0  70471002   MUL V0, V0, A3
9D0044A4  50A00001   BEQL A1, ZERO, 0x9D0044AC
9D0044A8  00021023   SUBU V0, ZERO, V0
9D0044AC  03E00008   JR RA
9D0044B0  00000000   NOP
---  /data01/build/bamboo/xml-data/build-dir/M32DEV-GMB34-JOB1/src/xc32-musl-stdlib/musl/musl-1.1.18/src/stdio/puts.c
-----*  Optimizer-Generated Procedural Abstractions  *----------------------------------------------
9D004A30  27BDFFE8   ADDIU SP, SP, -24
9D004A34  AFB00010   SW S0, 16(SP)
9D004A38  3C10A000   LUI S0, -24576
9D004A3C  8E020504   LW V0, 1284(S0)
9D004A40  AFBF0014   SW RA, 20(SP)
9D004A44  0F40120C   JAL fputs
9D004A48  8C450000   LW A1, 0(V0)
9D004A4C  04400006   BLTZ V0, 0x9D004A68
9D004A50  24030001   ADDIU V1, ZERO, 1
9D004A54  8E020504   LW V0, 1284(S0)
9D004A58  2404000A   ADDIU A0, ZERO, 10
9D004A5C  0F4013ED   JAL putc
9D004A60  8C450000   LW A1, 0(V0)
9D004A64  00021FC2   SRL V1, V0, 31
9D004A68  8FBF0014   LW RA, 20(SP)
9D004A6C  00031023   SUBU V0, ZERO, V1
9D004A70  8FB00010   LW S0, 16(SP)
9D004A74  03E00008   JR RA
9D004A78  27BD0018   ADDIU SP, SP, 24
---  /data01/build/bamboo/xml-data/build-dir/M32DEV-GMB34-JOB1/src/xc32-musl-stdlib/musl/musl-1.1.18/src/stdio/putchar.c
-----*  Optimizer-Generated Procedural Abstractions  *----------------------------------------------
9D004E64  3C02A000   LUI V0, -24576
9D004E68  8C420504   LW V0, 1284(V0)
9D004E6C  27BDFFE8   ADDIU SP, SP, -24
9D004E70  AFBF0014   SW RA, 20(SP)
9D004E74  0F4013ED   JAL putc
9D004E78  8C450000   LW A1, 0(V0)
9D004E7C  8FBF0014   LW RA, 20(SP)
9D004E80  03E00008   JR RA
9D004E84  27BD0018   ADDIU SP, SP, 24
---  /data01/build/bamboo/xml-data/build-dir/M32DEV-GMB34-JOB1/src/xc32-musl-stdlib/musl/musl-1.1.18/src/stdio/pic32m/stdout.c
-----*  Optimizer-Generated Procedural Abstractions  *----------------------------------------------
9D004EAC  3C02A000   LUI V0, -24576
9D004EB0  24420428   ADDIU V0, V0, 1064
9D004EB4  3C03A000   LUI V1, -24576
9D004EB8  AC620424   SW V0, 1060(V1)
9D004EBC  3C03A000   LUI V1, -24576
9D004EC0  AC620420   SW V0, 1056(V1)
9D004EC4  03E00008   JR RA
9D004EC8  00000000   NOP
---  /data01/build/bamboo/xml-data/build-dir/M32DEV-GMB34-JOB1/src/xc32-musl-stdlib/musl/musl-1.1.18/src/stdio/mchp/putc.c
-----*  Optimizer-Generated Procedural Abstractions  *----------------------------------------------
9D0046BC  8CA20004   LW V0, 4(A1)
9D0046C0  27BDFFE0   ADDIU SP, SP, -32
9D0046C4  308300FF   ANDI V1, A0, 255
9D0046C8  30420100   ANDI V0, V0, 256
9D0046CC  AFBF001C   SW RA, 28(SP)
9D0046D0  1040000A   BEQ V0, ZERO, 0x9D0046FC
9D0046D4  A3A30010   SB V1, 16(SP)
9D0046D8  8CA20014   LW V0, 20(A1)
9D0046DC  308400FF   ANDI A0, A0, 255
9D0046E0  24460001   ADDIU A2, V0, 1
9D0046E4  ACA60014   SW A2, 20(A1)
9D0046E8  A0430000   SB V1, 0(V0)
9D0046EC  8FBF001C   LW RA, 28(SP)
9D0046F0  00801025   OR V0, A0, ZERO
9D0046F4  03E00008   JR RA
9D0046F8  27BD0020   ADDIU SP, SP, 32
9D0046FC  00A02025   OR A0, A1, ZERO
9D004700  24060001   ADDIU A2, ZERO, 1
9D004704  0F4013B3   JAL __stdio_write_unbuffered, __fwrite, __stdio_write, __fwrite_min
9D004708  27A50010   ADDIU A1, SP, 16
9D00470C  1040FFF7   BEQ V0, ZERO, 0x9D0046EC
9D004710  2404FFFF   ADDIU A0, ZERO, -1
9D004714  1000FFF5   BEQ ZERO, ZERO, 0x9D0046EC
9D004718  93A40010   LBU A0, 16(SP)
9D004FB4  27BDFFE8   ADDIU SP, SP, -24
9D004FBC  0F4011AF   JAL __putc_unbuffered
9D004FC0  00000000   NOP
9D004FC4  8FBF0014   LW RA, 20(SP)
9D004FC8  03E00008   JR RA
9D004FCC  27BD0018   ADDIU SP, SP, 24
---  /data01/build/bamboo/xml-data/build-dir/M32DEV-GMB34-JOB1/src/xc32-musl-stdlib/musl/musl-1.1.18/src/stdio/mchp/fwrite.c
-----*  Optimizer-Generated Procedural Abstractions  *----------------------------------------------
9D00465C  27BDFFE0   ADDIU SP, SP, -32
9D004660  AFB20018   SW S2, 24(SP)
9D004664  70A69002   MUL S2, A1, A2
9D004668  0005300A   MOVZ A2, ZERO, A1
9D00466C  AFB10014   SW S1, 20(SP)
9D004670  AFB00010   SW S0, 16(SP)
9D004674  00C08825   OR S1, A2, ZERO
9D004678  00A08025   OR S0, A1, ZERO
9D00467C  00802825   OR A1, A0, ZERO
9D004680  00E02025   OR A0, A3, ZERO
9D004684  AFBF001C   SW RA, 28(SP)
9D004688  0F4013B3   JAL __stdio_write_unbuffered, __fwrite, __stdio_write, __fwrite_min
9D00468C  02403025   OR A2, S2, ZERO
9D004690  12420004   BEQ S2, V0, 0x9D0046A4
9D004694  8FBF001C   LW RA, 28(SP)
9D004698  0050001B   DIVU V0, S0
9D00469C  020001F4   TEQ S0, ZERO
9D0046A0  00008812   MFLO S1
9D0046A4  02201025   OR V0, S1, ZERO
9D0046A8  8FB20018   LW S2, 24(SP)
9D0046AC  8FB10014   LW S1, 20(SP)
9D0046B0  8FB00010   LW S0, 16(SP)
9D0046B4  03E00008   JR RA
9D0046B8  27BD0020   ADDIU SP, SP, 32
9D004EEC  8C840000   LW A0, 0(A0)
9D004EF0  27BDFFE8   ADDIU SP, SP, -24
9D004EF4  AFBF0014   SW RA, 20(SP)
9D004EF8  0F4010EB   JAL write
9D004EFC  00000000   NOP
9D004F00  8FBF0014   LW RA, 20(SP)
9D004F04  03E00008   JR RA
9D004F08  27BD0018   ADDIU SP, SP, 24
---  /data01/build/bamboo/xml-data/build-dir/M32DEV-GMB34-JOB1/src/xc32-musl-stdlib/musl/musl-1.1.18/src/stdio/mchp/__stdio_close.c
-----*  Optimizer-Generated Procedural Abstractions  *----------------------------------------------
9D003E74  54800003   BNEL A0, ZERO, 0x9D003E84
9D003E78  8C820004   LW V0, 4(A0)
9D003E7C  03E00008   JR RA
9D003E80  00001025   OR V0, ZERO, ZERO
9D003E84  27BDFFD8   ADDIU SP, SP, -40
9D003E88  AFB10020   SW S1, 32(SP)
9D003E8C  30420020   ANDI V0, V0, 32
9D003E90  AFB0001C   SW S0, 28(SP)
9D003E94  AFBF0024   SW RA, 36(SP)
9D003E98  00808025   OR S0, A0, ZERO
9D003E9C  10400009   BEQ V0, ZERO, 0x9D003EC4
9D003EA0  00A08825   OR S1, A1, ZERO
9D003EA4  8C820014   LW V0, 20(A0)
9D003EA8  8C830018   LW V1, 24(A0)
9D003EAC  0062102B   SLTU V0, V1, V0
9D003EB0  54400017   BNEL V0, ZERO, 0x9D003F10
9D003EB4  8C82002C   LW V0, 44(A0)
9D003EB8  AE000028   SW ZERO, 40(S0)
9D003EBC  AE000018   SW ZERO, 24(S0)
9D003EC0  AE000014   SW ZERO, 20(S0)
9D003EC4  8E06003C   LW A2, 60(S0)
9D003EC8  8E020040   LW V0, 64(S0)
9D003ECC  00C2182B   SLTU V1, A2, V0
9D003ED0  50600008   BEQL V1, ZERO, 0x9D003EF4
9D003ED4  AE000040   SW ZERO, 64(S0)
9D003ED8  00C23023   SUBU A2, A2, V0
9D003EDC  24020001   ADDIU V0, ZERO, 1
9D003EE0  AFA20010   SW V0, 16(SP)
9D003EE4  8E040000   LW A0, 0(S0)
9D003EE8  0F40142B   JAL lseek
9D003EEC  00063FC3   SRA A3, A2, 31
9D003EF0  AE000040   SW ZERO, 64(S0)
9D003EF4  AE00003C   SW ZERO, 60(S0)
9D003EF8  1220000B   BEQ S1, ZERO, 0x9D003F28
9D003EFC  00001025   OR V0, ZERO, ZERO
9D003F00  0F40142D   JAL close
9D003F04  8E040000   LW A0, 0(S0)
9D003F08  10000008   BEQ ZERO, ZERO, 0x9D003F2C
9D003F0C  8FBF0024   LW RA, 36(SP)
9D003F10  00003025   OR A2, ZERO, ZERO
9D003F14  0040F809   JALR V0
9D003F18  00002825   OR A1, ZERO, ZERO
9D003F1C  8E030014   LW V1, 20(S0)
9D003F20  1460FFE5   BNE V1, ZERO, 0x9D003EB8
9D003F24  2402FFFF   ADDIU V0, ZERO, -1
9D003F28  8FBF0024   LW RA, 36(SP)
9D003F2C  8FB10020   LW S1, 32(SP)
9D003F30  8FB0001C   LW S0, 28(SP)
9D003F34  03E00008   JR RA
9D003F38  27BD0028   ADDIU SP, SP, 40
9D0041FC  54800003   BNEL A0, ZERO, 0x9D00420C
9D004200  8C820004   LW V0, 4(A0)
9D004204  03E00008   JR RA
9D004208  00001025   OR V0, ZERO, ZERO
9D00420C  27BDFFE0   ADDIU SP, SP, -32
9D004210  AFB10018   SW S1, 24(SP)
9D004214  30420020   ANDI V0, V0, 32
9D004218  AFB00014   SW S0, 20(SP)
9D00421C  AFBF001C   SW RA, 28(SP)
9D004220  00808025   OR S0, A0, ZERO
9D004224  1440000A   BNE V0, ZERO, 0x9D004250
9D004228  00A08825   OR S1, A1, ZERO
9D00422C  AE000028   SW ZERO, 40(S0)
9D004230  AE000018   SW ZERO, 24(S0)
9D004234  AE000014   SW ZERO, 20(S0)
9D004238  12200011   BEQ S1, ZERO, 0x9D004280
9D00423C  00001025   OR V0, ZERO, ZERO
9D004240  0F40142D   JAL close
9D004244  8E040000   LW A0, 0(S0)
9D004248  1000000E   BEQ ZERO, ZERO, 0x9D004284
9D00424C  8FBF001C   LW RA, 28(SP)
9D004250  8C820014   LW V0, 20(A0)
9D004254  8C830018   LW V1, 24(A0)
9D004258  0062102B   SLTU V0, V1, V0
9D00425C  5040FFF4   BEQL V0, ZERO, 0x9D004230
9D004260  AE000028   SW ZERO, 40(S0)
9D004264  8C82002C   LW V0, 44(A0)
9D004268  00003025   OR A2, ZERO, ZERO
9D00426C  0040F809   JALR V0
9D004270  00002825   OR A1, ZERO, ZERO
9D004274  8E030014   LW V1, 20(S0)
9D004278  1460FFEC   BNE V1, ZERO, 0x9D00422C
9D00427C  2402FFFF   ADDIU V0, ZERO, -1
9D004280  8FBF001C   LW RA, 28(SP)
9D004284  8FB10018   LW S1, 24(SP)
9D004288  8FB00014   LW S0, 20(SP)
9D00428C  03E00008   JR RA
9D004290  27BD0020   ADDIU SP, SP, 32
---  /data01/build/bamboo/xml-data/build-dir/M32DEV-GMB34-JOB1/src/xc32-musl-stdlib/musl/musl-1.1.18/src/stdio/mchp/__printf_core.c
-----*  Optimizer-Generated Procedural Abstractions  *----------------------------------------------
9D0017D0  27BDFF18   ADDIU SP, SP, -232
9D0017D4  AFB500D8   SW S5, 216(SP)
9D0017D8  3C159D00   LUI S5, -25344
9D0017DC  AFB600DC   SW S6, 220(SP)
9D0017E0  AFB400D4   SW S4, 212(SP)
9D0017E4  AFB300D0   SW S3, 208(SP)
9D0017E8  AFB200CC   SW S2, 204(SP)
9D0017EC  AFB100C8   SW S1, 200(SP)
9D0017F0  AFBF00E4   SW RA, 228(SP)
9D0017F4  AFB700E0   SW S7, 224(SP)
9D0017F8  AFB000C4   SW S0, 196(SP)
9D0017FC  00809025   OR S2, A0, ZERO
9D001800  00C08825   OR S1, A2, ZERO
9D001804  AFA500B0   SW A1, 176(SP)
9D001808  00009825   OR S3, ZERO, ZERO
9D00180C  27B60010   ADDIU S6, SP, 16
9D001810  24140025   ADDIU S4, ZERO, 37
9D001814  26B55094   ADDIU S5, S5, 20628
9D001818  8FA500B0   LW A1, 176(SP)
9D00181C  80A20000   LB V0, 0(A1)
9D001820  104000E5   BEQ V0, ZERO, 0x9D001BB8
9D001824  2402FFFF   ADDIU V0, ZERO, -1
9D001828  AFA20094   SW V0, 148(SP)
9D00182C  24020080   ADDIU V0, ZERO, 128
9D001830  AFA00090   SW ZERO, 144(SP)
9D001834  AFA00098   SW ZERO, 152(SP)
9D001838  AFB6009C   SW S6, 156(SP)
9D00183C  AFA200A0   SW V0, 160(SP)
9D001840  00008025   OR S0, ZERO, ZERO
9D001844  00B01021   ADDU V0, A1, S0
9D001848  80420000   LB V0, 0(V0)
9D00184C  10400003   BEQ V0, ZERO, 0x9D00185C
9D001850  00000000   NOP
9D001854  5454FFFB   BNEL V0, S4, 0x9D001844
9D001858  26100001   ADDIU S0, S0, 1
9D00185C  12000008   BEQ S0, ZERO, 0x9D001880
9D001860  8FB700B0   LW S7, 176(SP)
9D001864  02003025   OR A2, S0, ZERO
9D001868  0F4010C8   JAL __out
9D00186C  02402025   OR A0, S2, ZERO
9D001870  8FA200B0   LW V0, 176(SP)
9D001874  00501021   ADDU V0, V0, S0
9D001878  AFA200B0   SW V0, 176(SP)
9D00187C  8FB700B0   LW S7, 176(SP)
9D001880  82E20000   LB V0, 0(S7)
9D001884  545400C5   BNEL V0, S4, 0x9D001B9C
9D001888  02708021   ADDU S0, S3, S0
9D00188C  26F70001   ADDIU S7, S7, 1
9D001890  AFB700B0   SW S7, 176(SP)
9D001894  2405002B   ADDIU A1, ZERO, 43
9D001898  2406002D   ADDIU A2, ZERO, 45
9D00189C  24030030   ADDIU V1, ZERO, 48
9D0018A0  24070020   ADDIU A3, ZERO, 32
9D0018A4  24080023   ADDIU T0, ZERO, 35
9D0018A8  8FA400B0   LW A0, 176(SP)
9D0018AC  80820000   LB V0, 0(A0)
9D0018B0  5045001B   BEQL V0, A1, 0x9D001920
9D0018B4  8FA20090   LW V0, 144(SP)
9D0018B8  2849002C   SLTI T1, V0, 44
9D0018BC  1120001E   BEQ T1, ZERO, __printf_core::vfpfcnvrt
9D0018C0  00000000   NOP
9D0018C4  50470018   BEQL V0, A3, 0x9D001928
9D0018C8  8FA20090   LW V0, 144(SP)
9D0018CC  50480018   BEQL V0, T0, 0x9D001930
9D0018D0  8FA20090   LW V0, 144(SP)
9D0018D4  2403002A   ADDIU V1, ZERO, 42
9D0018D8  5043001E   BEQL V0, V1, __printf_core::vfpfcnvrt
9D0018DC  8E220000   LW V0, 0(S1)
9D0018E0  0F40110D   JAL atoi
9D0018E4  00000000   NOP
9D0018E8  AFA20098   SW V0, 152(SP)
9D0018EC  8FA300B0   LW V1, 176(SP)
9D0018F0  80620000   LB V0, 0(V1)
9D0018F4  2442FFD0   ADDIU V0, V0, -48
9D0018F8  2C42000A   SLTIU V0, V0, 10
9D0018FC  10400021   BEQ V0, ZERO, 0x9D001984
9D001900  24630001   ADDIU V1, V1, 1
9D001904  1000FFF9   BEQ ZERO, ZERO, 0x9D0018EC
9D001908  AFA300B0   SW V1, 176(SP)
9D00190C  34420001   ORI V0, V0, 1
9D001910  24840001   ADDIU A0, A0, 1
9D001914  AFA20090   SW V0, 144(SP)
9D001918  1000FFE3   BEQ ZERO, ZERO, 0x9D0018A8
9D00191C  AFA400B0   SW A0, 176(SP)
9D001920  1000FFFB   BEQ ZERO, ZERO, 0x9D001910
9D001924  34420004   ORI V0, V0, 4
9D001928  1000FFF9   BEQ ZERO, ZERO, 0x9D001910
9D00192C  34420008   ORI V0, V0, 8
9D001930  1000FFF7   BEQ ZERO, ZERO, 0x9D001910
9D001934  34420010   ORI V0, V0, 16
9D001938  5046FFF4   BEQL V0, A2, __printf_core::vfpfcnvrt
9D00193C  8FA20090   LW V0, 144(SP)
9D001940  5443FFE5   BNEL V0, V1, 0x9D0018D8
9D001944  2403002A   ADDIU V1, ZERO, 42
9D001948  8FA20090   LW V0, 144(SP)
9D00194C  1000FFF0   BEQ ZERO, ZERO, 0x9D001910
9D001950  34420002   ORI V0, V0, 2
9D001954  24840001   ADDIU A0, A0, 1
9D001958  AFA400B0   SW A0, 176(SP)
9D00195C  24430004   ADDIU V1, V0, 4
9D001960  8C420000   LW V0, 0(V0)
9D001964  AE230000   SW V1, 0(S1)
9D001968  04410006   BGEZ V0, 0x9D001984
9D00196C  AFA20098   SW V0, 152(SP)
9D001970  8FA30090   LW V1, 144(SP)
9D001974  00021023   SUBU V0, ZERO, V0
9D001978  AFA20098   SW V0, 152(SP)
9D00197C  38630001   XORI V1, V1, 1
9D001980  AFA30090   SW V1, 144(SP)
9D001984  8FA20090   LW V0, 144(SP)
9D001988  30430001   ANDI V1, V0, 1
9D00198C  50600004   BEQL V1, ZERO, 0x9D0019A0
9D001990  8FA200B0   LW V0, 176(SP)
9D001994  7C020844   INS V0, ZERO, 1, 1
9D001998  AFA20090   SW V0, 144(SP)
9D00199C  8FA200B0   LW V0, 176(SP)
9D0019A0  2403002E   ADDIU V1, ZERO, 46
9D0019A4  80440000   LB A0, 0(V0)
9D0019A8  1483000D   BNE A0, V1, 0x9D0019E0
9D0019AC  24440001   ADDIU A0, V0, 1
9D0019B0  AFA00094   SW ZERO, 148(SP)
9D0019B4  AFA400B0   SW A0, 176(SP)
9D0019B8  80450001   LB A1, 1(V0)
9D0019BC  2403002A   ADDIU V1, ZERO, 42
9D0019C0  14A30024   BNE A1, V1, __printf_core::vfpfcnvrt
9D0019C4  24420002   ADDIU V0, V0, 2
9D0019C8  AFA200B0   SW V0, 176(SP)
9D0019CC  8E220000   LW V0, 0(S1)
9D0019D0  24430004   ADDIU V1, V0, 4
9D0019D4  8C420000   LW V0, 0(V0)
9D0019D8  AE230000   SW V1, 0(S1)
9D0019DC  AFA20094   SW V0, 148(SP)
9D0019E0  0F4011F5   JAL __fmt_state
9D0019E4  27A400B0   ADDIU A0, SP, 176
9D0019E8  AFA200B8   SW V0, 184(SP)
9D0019EC  8FA200B0   LW V0, 176(SP)
9D0019F0  0F4013CA   JAL tolower
9D0019F4  80440000   LB A0, 0(V0)
9D0019F8  24030069   ADDIU V1, ZERO, 105
9D0019FC  1043007A   BEQ V0, V1, __printf_core::vfpfcnvrt
9D001A00  8FA500B8   LW A1, 184(SP)
9D001A04  2843006A   SLTI V1, V0, 106
9D001A08  1060002F   BEQ V1, ZERO, __printf_core::vfpfcnvrt
9D001A0C  24030070   ADDIU V1, ZERO, 112
9D001A10  24030063   ADDIU V1, ZERO, 99
9D001A14  104300BC   BEQ V0, V1, __printf_core::vfpfcnvrt
9D001A18  28430064   SLTI V1, V0, 100
9D001A1C  10600018   BEQ V1, ZERO, __printf_core::vfpfcnvrt
9D001A20  24030064   ADDIU V1, ZERO, 100
9D001A24  105400C5   BEQ V0, S4, __printf_core::vfpfcnvrt
9D001A28  24030061   ADDIU V1, ZERO, 97
9D001A2C  5043004E   BEQL V0, V1, __printf_core::vfpfcnvrt
9D001A30  02203025   OR A2, S1, ZERO
9D001A34  24020025   ADDIU V0, ZERO, 37
9D001A38  A3A200A8   SB V0, 168(SP)
9D001A3C  2402FFFF   ADDIU V0, ZERO, -1
9D001A40  AFB700B0   SW S7, 176(SP)
9D001A44  AFA00090   SW ZERO, 144(SP)
9D001A48  AFA00098   SW ZERO, 152(SP)
9D001A4C  100000B8   BEQ ZERO, ZERO, 0x9D001D30
9D001A50  AFA20094   SW V0, 148(SP)
9D001A54  0F40110D   JAL atoi
9D001A58  00000000   NOP
9D001A5C  AFA20094   SW V0, 148(SP)
9D001A60  8FA300B0   LW V1, 176(SP)
9D001A64  80620000   LB V0, 0(V1)
9D001A68  2442FFD0   ADDIU V0, V0, -48
9D001A6C  2C42000A   SLTIU V0, V0, 10
9D001A70  1040FFDB   BEQ V0, ZERO, 0x9D0019E0
9D001A74  24630001   ADDIU V1, V1, 1
9D001A78  1000FFF9   BEQ ZERO, ZERO, 0x9D001A60
9D001A7C  AFA300B0   SW V1, 176(SP)
9D001A80  10430059   BEQ V0, V1, __printf_core::vfpfcnvrt
9D001A84  28420068   SLTI V0, V0, 104
9D001A88  1040FFEB   BEQ V0, ZERO, 0x9D001A38
9D001A8C  24020025   ADDIU V0, ZERO, 37
9D001A90  02203025   OR A2, S1, ZERO
9D001A94  0F401278   JAL __pop_float
9D001A98  27A400A8   ADDIU A0, SP, 168
9D001A9C  10400097   BEQ V0, ZERO, 0x9D001CFC
9D001AA0  8FA200B0   LW V0, 176(SP)
9D001AA4  27A600A8   ADDIU A2, SP, 168
9D001AA8  27A50090   ADDIU A1, SP, 144
9D001AAC  24430001   ADDIU V1, V0, 1
9D001AB0  AFA300B0   SW V1, 176(SP)
9D001AB4  80470000   LB A3, 0(V0)
9D001AB8  0F401421   JAL __fmt_fp, __fmt_a, __dummy_fmt4
9D001ABC  02402025   OR A0, S2, ZERO
9D001AC0  10000035   BEQ ZERO, ZERO, 0x9D001B98
9D001AC4  02028021   ADDU S0, S0, V0
9D001AC8  10430072   BEQ V0, V1, __printf_core::vfpfcnvrt
9D001ACC  28430071   SLTI V1, V0, 113
9D001AD0  10600014   BEQ V1, ZERO, __printf_core::vfpfcnvrt
9D001AD4  24030075   ADDIU V1, ZERO, 117
9D001AD8  2403006E   ADDIU V1, ZERO, 110
9D001ADC  10430082   BEQ V0, V1, __printf_core::vfpfcnvrt
9D001AE0  2403006F   ADDIU V1, ZERO, 111
9D001AE4  1443FFD4   BNE V0, V1, 0x9D001A38
9D001AE8  24020025   ADDIU V0, ZERO, 37
9D001AEC  02203825   OR A3, S1, ZERO
9D001AF0  00003025   OR A2, ZERO, ZERO
9D001AF4  0F400C83   JAL __pop_int
9D001AF8  27A400A8   ADDIU A0, SP, 168
9D001AFC  1040007F   BEQ V0, ZERO, 0x9D001CFC
9D001B00  8FA200B0   LW V0, 176(SP)
9D001B04  27A600A8   ADDIU A2, SP, 168
9D001B08  27A50090   ADDIU A1, SP, 144
9D001B0C  24420001   ADDIU V0, V0, 1
9D001B10  02402025   OR A0, S2, ZERO
9D001B14  0F400EB2   JAL __fmt_o
9D001B18  AFA200B0   SW V0, 176(SP)
9D001B1C  1000001E   BEQ ZERO, ZERO, 0x9D001B98
9D001B20  02028021   ADDU S0, S0, V0
9D001B24  1043003E   BEQ V0, V1, __printf_core::vfpfcnvrt
9D001B28  24030078   ADDIU V1, ZERO, 120
9D001B2C  1043004A   BEQ V0, V1, __printf_core::vfpfcnvrt
9D001B30  24030073   ADDIU V1, ZERO, 115
9D001B34  1443FFC0   BNE V0, V1, 0x9D001A38
9D001B38  24020025   ADDIU V0, ZERO, 37
9D001B3C  24020080   ADDIU V0, ZERO, 128
9D001B40  14A2006E   BNE A1, V0, 0x9D001CFC
9D001B44  8FA200B0   LW V0, 176(SP)
9D001B48  00003825   OR A3, ZERO, ZERO
9D001B4C  24420001   ADDIU V0, V0, 1
9D001B50  AFA200B0   SW V0, 176(SP)
9D001B54  8E220000   LW V0, 0(S1)
9D001B58  24430004   ADDIU V1, V0, 4
9D001B5C  AE230000   SW V1, 0(S1)
9D001B60  1000005C   BEQ ZERO, ZERO, 0x9D001CD4
9D001B64  8C460000   LW A2, 0(V0)
9D001B68  0F401278   JAL __pop_float
9D001B6C  27A400A8   ADDIU A0, SP, 168
9D001B70  10400062   BEQ V0, ZERO, 0x9D001CFC
9D001B74  8FA200B0   LW V0, 176(SP)
9D001B78  27A600A8   ADDIU A2, SP, 168
9D001B7C  27A50090   ADDIU A1, SP, 144
9D001B80  24430001   ADDIU V1, V0, 1
9D001B84  AFA300B0   SW V1, 176(SP)
9D001B88  80470000   LB A3, 0(V0)
9D001B8C  0F401421   JAL __fmt_fp, __fmt_a, __dummy_fmt4
9D001B90  02402025   OR A0, S2, ZERO
9D001B94  02028021   ADDU S0, S0, V0
9D001B98  02708021   ADDU S0, S3, S0
9D001B9C  0213982A   SLT S3, S0, S3
9D001BA0  1260FF1D   BEQ S3, ZERO, 0x9D001818
9D001BA4  02009825   OR S3, S0, ZERO
9D001BA8  3C02A000   LUI V0, -24576
9D001BAC  2403004F   ADDIU V1, ZERO, 79
9D001BB0  AC430508   SW V1, 1288(V0)
9D001BB4  2413FFFF   ADDIU S3, ZERO, -1
9D001BB8  8FBF00E4   LW RA, 228(SP)
9D001BBC  02601025   OR V0, S3, ZERO
9D001BC0  8FB700E0   LW S7, 224(SP)
9D001BC4  8FB600DC   LW S6, 220(SP)
9D001BC8  8FB500D8   LW S5, 216(SP)
9D001BCC  8FB400D4   LW S4, 212(SP)
9D001BD0  8FB300D0   LW S3, 208(SP)
9D001BD4  8FB200CC   LW S2, 204(SP)
9D001BD8  8FB100C8   LW S1, 200(SP)
9D001BDC  8FB000C4   LW S0, 196(SP)
9D001BE0  03E00008   JR RA
9D001BE4  27BD00E8   ADDIU SP, SP, 232
9D001BE8  02203825   OR A3, S1, ZERO
9D001BEC  24060001   ADDIU A2, ZERO, 1
9D001BF0  0F400C83   JAL __pop_int
9D001BF4  27A400A8   ADDIU A0, SP, 168
9D001BF8  10400040   BEQ V0, ZERO, 0x9D001CFC
9D001BFC  8FA200B0   LW V0, 176(SP)
9D001C00  27A600A8   ADDIU A2, SP, 168
9D001C04  27A50090   ADDIU A1, SP, 144
9D001C08  24420001   ADDIU V0, V0, 1
9D001C0C  02402025   OR A0, S2, ZERO
9D001C10  0F400CE5   JAL __fmt_d
9D001C14  AFA200B0   SW V0, 176(SP)
9D001C18  1000FFDF   BEQ ZERO, ZERO, 0x9D001B98
9D001C1C  02028021   ADDU S0, S0, V0
9D001C20  02203825   OR A3, S1, ZERO
9D001C24  00003025   OR A2, ZERO, ZERO
9D001C28  0F400C83   JAL __pop_int
9D001C2C  27A400A8   ADDIU A0, SP, 168
9D001C30  10400032   BEQ V0, ZERO, 0x9D001CFC
9D001C34  8FA200B0   LW V0, 176(SP)
9D001C38  27A600A8   ADDIU A2, SP, 168
9D001C3C  27A50090   ADDIU A1, SP, 144
9D001C40  24420001   ADDIU V0, V0, 1
9D001C44  02402025   OR A0, S2, ZERO
9D001C48  0F400FCF   JAL __fmt_u
9D001C4C  AFA200B0   SW V0, 176(SP)
9D001C50  1000FFD1   BEQ ZERO, ZERO, 0x9D001B98
9D001C54  02028021   ADDU S0, S0, V0
9D001C58  02203825   OR A3, S1, ZERO
9D001C5C  00003025   OR A2, ZERO, ZERO
9D001C60  0F400C83   JAL __pop_int
9D001C64  27A400A8   ADDIU A0, SP, 168
9D001C68  10400024   BEQ V0, ZERO, 0x9D001CFC
9D001C6C  8FA200B0   LW V0, 176(SP)
9D001C70  24430001   ADDIU V1, V0, 1
9D001C74  AFA300B0   SW V1, 176(SP)
9D001C78  80470000   LB A3, 0(V0)
9D001C7C  27A600A8   ADDIU A2, SP, 168
9D001C80  27A50090   ADDIU A1, SP, 144
9D001C84  0F400B98   JAL __fmt_x
9D001C88  02402025   OR A0, S2, ZERO
9D001C8C  1000FFC2   BEQ ZERO, ZERO, 0x9D001B98
9D001C90  02028021   ADDU S0, S0, V0
9D001C94  02203825   OR A3, S1, ZERO
9D001C98  00003025   OR A2, ZERO, ZERO
9D001C9C  240500F0   ADDIU A1, ZERO, 240
9D001CA0  0F400C83   JAL __pop_int
9D001CA4  27A400A8   ADDIU A0, SP, 168
9D001CA8  10400014   BEQ V0, ZERO, 0x9D001CFC
9D001CAC  8FA200B0   LW V0, 176(SP)
9D001CB0  8FA300AC   LW V1, 172(SP)
9D001CB4  24420001   ADDIU V0, V0, 1
9D001CB8  AFA200B0   SW V0, 176(SP)
9D001CBC  8FA200A8   LW V0, 168(SP)
9D001CC0  00431025   OR V0, V0, V1
9D001CC4  1440FFED   BNE V0, ZERO, 0x9D001C7C
9D001CC8  24070078   ADDIU A3, ZERO, 120
9D001CCC  00003825   OR A3, ZERO, ZERO
9D001CD0  02A03025   OR A2, S5, ZERO
9D001CD4  27A50090   ADDIU A1, SP, 144
9D001CD8  0F401055   JAL __fmt_s
9D001CDC  02402025   OR A0, S2, ZERO
9D001CE0  1000FFAD   BEQ ZERO, ZERO, 0x9D001B98
9D001CE4  02028021   ADDU S0, S0, V0
9D001CE8  02203825   OR A3, S1, ZERO
9D001CEC  02703021   ADDU A2, S3, S0
9D001CF0  0F400F2D   JAL __pop_ptr
9D001CF4  27A400A8   ADDIU A0, SP, 168
9D001CF8  8FA200B0   LW V0, 176(SP)
9D001CFC  24420001   ADDIU V0, V0, 1
9D001D00  1000FFA5   BEQ ZERO, ZERO, 0x9D001B98
9D001D04  AFA200B0   SW V0, 176(SP)
9D001D08  24020080   ADDIU V0, ZERO, 128
9D001D0C  14A2FFFB   BNE A1, V0, 0x9D001CFC
9D001D10  8FA200B0   LW V0, 176(SP)
9D001D14  24420001   ADDIU V0, V0, 1
9D001D18  AFA200B0   SW V0, 176(SP)
9D001D1C  8E220000   LW V0, 0(S1)
9D001D20  24430004   ADDIU V1, V0, 4
9D001D24  8C420000   LW V0, 0(V0)
9D001D28  AE230000   SW V1, 0(S1)
9D001D2C  A3A200A8   SB V0, 168(SP)
9D001D30  24070001   ADDIU A3, ZERO, 1
9D001D34  1000FFE7   BEQ ZERO, ZERO, 0x9D001CD4
9D001D38  27A600A8   ADDIU A2, SP, 168
9D001D3C  24020080   ADDIU V0, ZERO, 128
9D001D40  14A2FFEE   BNE A1, V0, 0x9D001CFC
9D001D44  8FA200B0   LW V0, 176(SP)
9D001D48  A3B400A8   SB S4, 168(SP)
9D001D4C  24420001   ADDIU V0, V0, 1
9D001D50  1000FFF7   BEQ ZERO, ZERO, 0x9D001D30
9D001D54  AFA200B0   SW V0, 176(SP)
9D001D58  27BDFFD0   ADDIU SP, SP, -48
9D0039C4  27BDFFC0   ADDIU SP, SP, -64
9D0039C8  AFB40030   SW S4, 48(SP)
9D0039CC  8FB40050   LW S4, 80(SP)
9D0039D0  AFB50034   SW S5, 52(SP)
9D0039D4  AFB3002C   SW S3, 44(SP)
9D0039D8  32940001   ANDI S4, S4, 1
9D0039DC  AFB20028   SW S2, 40(SP)
9D0039E0  AFB10024   SW S1, 36(SP)
9D0039E4  AFB00020   SW S0, 32(SP)
9D0039E8  AFBF003C   SW RA, 60(SP)
9D0039EC  AFB60038   SW S6, 56(SP)
9D0039F0  00809825   OR S3, A0, ZERO
9D0039F4  00A0A825   OR S5, A1, ZERO
9D0039F8  00C08825   OR S1, A2, ZERO
9D0039FC  00E09025   OR S2, A3, ZERO
9D003A00  16800024   BNE S4, ZERO, 0x9D003A94
9D003A04  00C7802A   SLT S0, A2, A3
9D003A08  12000023   BEQ S0, ZERO, 0x9D003A98
9D003A0C  02203025   OR A2, S1, ZERO
9D003A10  02518023   SUBU S0, S2, S1
9D003A14  2E060011   SLTIU A2, S0, 17
9D003A18  24020010   ADDIU V0, ZERO, 16
9D003A1C  0206100B   MOVN V0, S0, A2
9D003A20  00403025   OR A2, V0, ZERO
9D003A24  24050020   ADDIU A1, ZERO, 32
9D003A28  27A40010   ADDIU A0, SP, 16
9D003A2C  0F4013A2   JAL memset
9D003A30  0200B025   OR S6, S0, ZERO
9D003A34  2A020010   SLTI V0, S0, 16
9D003A38  1040001E   BEQ V0, ZERO, 0x9D003AB4
9D003A3C  24060010   ADDIU A2, ZERO, 16
9D003A40  32C6000F   ANDI A2, S6, 15
9D003A44  27A50010   ADDIU A1, SP, 16
9D003A48  0F4010C8   JAL __out
9D003A4C  02602025   OR A0, S3, ZERO
9D003A50  16800006   BNE S4, ZERO, 0x9D003A6C
9D003A54  8FBF003C   LW RA, 60(SP)
9D003A58  02203025   OR A2, S1, ZERO
9D003A5C  02A02825   OR A1, S5, ZERO
9D003A60  0F4010C8   JAL __out
9D003A64  02602025   OR A0, S3, ZERO
9D003A68  8FBF003C   LW RA, 60(SP)
9D003A6C  02401025   OR V0, S2, ZERO
9D003A70  8FB60038   LW S6, 56(SP)
9D003A74  8FB50034   LW S5, 52(SP)
9D003A78  8FB40030   LW S4, 48(SP)
9D003A7C  8FB3002C   LW S3, 44(SP)
9D003A80  8FB20028   LW S2, 40(SP)
9D003A84  8FB10024   LW S1, 36(SP)
9D003A88  8FB00020   LW S0, 32(SP)
9D003A8C  03E00008   JR RA
9D003A90  27BD0040   ADDIU SP, SP, 64
9D003A94  02203025   OR A2, S1, ZERO
9D003A98  02A02825   OR A1, S5, ZERO
9D003A9C  0F4010C8   JAL __out
9D003AA0  02602025   OR A0, S3, ZERO
9D003AA4  1600FFDB   BNE S0, ZERO, 0x9D003A14
9D003AA8  02518023   SUBU S0, S2, S1
9D003AAC  1000FFEE   BEQ ZERO, ZERO, 0x9D003A68
9D003AB0  02209025   OR S2, S1, ZERO
9D003AB4  27A50010   ADDIU A1, SP, 16
9D003AB8  0F4010C8   JAL __out
9D003ABC  02602025   OR A0, S3, ZERO
9D003AC0  1000FFDC   BEQ ZERO, ZERO, 0x9D003A34
9D003AC4  2610FFF0   ADDIU S0, S0, -16
9D004778  8C820010   LW V0, 16(A0)
9D00477C  27BDFFE0   ADDIU SP, SP, -32
9D004780  AFB00014   SW S0, 20(SP)
9D004784  00808025   OR S0, A0, ZERO
9D004788  8C840014   LW A0, 20(A0)
9D00478C  AFB10018   SW S1, 24(SP)
9D004790  00C2882B   SLTU S1, A2, V0
9D004794  0051300A   MOVZ A2, V0, S1
9D004798  AFBF001C   SW RA, 28(SP)
9D00479C  0F40136F   JAL memcpy
9D0047A0  00C08825   OR S1, A2, ZERO
9D0047A4  8E020014   LW V0, 20(S0)
9D0047A8  8E060010   LW A2, 16(S0)
9D0047AC  00511021   ADDU V0, V0, S1
9D0047B0  00D18823   SUBU S1, A2, S1
9D0047B4  AE110010   SW S1, 16(S0)
9D0047B8  AE020014   SW V0, 20(S0)
9D0047BC  A0400000   SB ZERO, 0(V0)
9D0047C0  8FBF001C   LW RA, 28(SP)
9D0047C4  8FB10018   LW S1, 24(SP)
9D0047C8  8FB00014   LW S0, 20(SP)
9D0047CC  03E00008   JR RA
9D0047D0  27BD0020   ADDIU SP, SP, 32
9D0047D4  3C069D00   LUI A2, -25344
9D0047D8  00001025   OR V0, ZERO, ZERO
9D0047DC  24C65000   ADDIU A2, A2, 20480
9D0047E0  00021840   SLL V1, V0, 1
9D0047E4  00661821   ADDU V1, V1, A2
9D0047E8  80670000   LB A3, 0(V1)
9D0047EC  54E00003   BNEL A3, ZERO, 0x9D0047FC
9D0047F0  8C850000   LW A1, 0(A0)
9D0047F4  03E00008   JR RA
9D0047F8  90620001   LBU V0, 1(V1)
9D0047FC  80A80000   LB T0, 0(A1)
9D004800  15070009   BNE T0, A3, 0x9D004828
9D004804  24420001   ADDIU V0, V0, 1
9D004808  90620001   LBU V0, 1(V1)
9D00480C  24A50001   ADDIU A1, A1, 1
9D004810  AC850000   SW A1, 0(A0)
9D004814  2C43000B   SLTIU V1, V0, 11
9D004818  1460FFF2   BNE V1, ZERO, 0x9D0047E4
9D00481C  00021840   SLL V1, V0, 1
9D004820  03E00008   JR RA
9D004824  00000000   NOP
9D004828  1000FFFA   BEQ ZERO, ZERO, 0x9D004814
9D00482C  304200FF   ANDI V0, V0, 255
9D00507C  03E00008   JR RA
9D005080  00001025   OR V0, ZERO, ZERO
9D005084  03E00008   JR RA
9D00508C  03E00008   JR RA
9D005090  00001025   OR V0, ZERO, ZERO
---  /data01/build/bamboo/xml-data/build-dir/M32DEV-GMB34-JOB1/src/xc32-musl-stdlib/musl/musl-1.1.18/src/stdio/mchp/__pop_ptr.c
-----*  Optimizer-Generated Procedural Abstractions  *----------------------------------------------
9D003CB4  24020084   ADDIU V0, ZERO, 132
9D003CB8  50A20022   BEQL A1, V0, 0x9D003D44
9D003CBC  8CE20000   LW V0, 0(A3)
9D003CC0  28A20085   SLTI V0, A1, 133
9D003CC4  10400011   BEQ V0, ZERO, 0x9D003D0C
9D003CC8  24020090   ADDIU V0, ZERO, 144
9D003CCC  24020081   ADDIU V0, ZERO, 129
9D003CD0  50A20008   BEQL A1, V0, 0x9D003CF4
9D003CD4  8CE20000   LW V0, 0(A3)
9D003CD8  24020082   ADDIU V0, ZERO, 130
9D003CDC  50A20026   BEQL A1, V0, 0x9D003D78
9D003CE0  8CE20000   LW V0, 0(A3)
9D003CE4  24020080   ADDIU V0, ZERO, 128
9D003CE8  14A20010   BNE A1, V0, 0x9D003D2C
9D003CEC  00000000   NOP
9D003CF0  8CE20000   LW V0, 0(A3)
9D003CF4  24430004   ADDIU V1, V0, 4
9D003CF8  ACE30000   SW V1, 0(A3)
9D003CFC  8C420000   LW V0, 0(V0)
9D003D00  AC820000   SW V0, 0(A0)
9D003D04  10000014   BEQ ZERO, ZERO, 0x9D003D58
9D003D08  AC460000   SW A2, 0(V0)
9D003D0C  50A2001A   BEQL A1, V0, 0x9D003D78
9D003D10  8CE20000   LW V0, 0(A3)
9D003D14  28A20091   SLTI V0, A1, 145
9D003D18  10400006   BEQ V0, ZERO, 0x9D003D34
9D003D1C  240200A0   ADDIU V0, ZERO, 160
9D003D20  24020088   ADDIU V0, ZERO, 136
9D003D24  50A2000E   BEQL A1, V0, 0x9D003D60
9D003D28  8CE20000   LW V0, 0(A3)
9D003D2C  03E00008   JR RA
9D003D30  00001025   OR V0, ZERO, ZERO
9D003D34  50A2FFEF   BEQL A1, V0, 0x9D003CF4
9D003D38  8CE20000   LW V0, 0(A3)
9D003D3C  1000FFEA   BEQ ZERO, ZERO, 0x9D003CE8
9D003D40  240200C0   ADDIU V0, ZERO, 192
9D003D44  24430004   ADDIU V1, V0, 4
9D003D48  ACE30000   SW V1, 0(A3)
9D003D4C  8C420000   LW V0, 0(V0)
9D003D50  AC820000   SW V0, 0(A0)
9D003D54  A4460000   SH A2, 0(V0)
9D003D58  03E00008   JR RA
9D003D5C  24020001   ADDIU V0, ZERO, 1
9D003D60  24430004   ADDIU V1, V0, 4
9D003D64  ACE30000   SW V1, 0(A3)
9D003D68  8C420000   LW V0, 0(V0)
9D003D6C  AC820000   SW V0, 0(A0)
9D003D70  1000FFF9   BEQ ZERO, ZERO, 0x9D003D58
9D003D74  A0460000   SB A2, 0(V0)
9D003D78  24430004   ADDIU V1, V0, 4
9D003D7C  ACE30000   SW V1, 0(A3)
9D003D80  8C420000   LW V0, 0(V0)
9D003D84  AC820000   SW V0, 0(A0)
9D003D88  AC460000   SW A2, 0(V0)
9D003D8C  000637C3   SRA A2, A2, 31
9D003D90  1000FFF1   BEQ ZERO, ZERO, 0x9D003D58
9D003D94  AC460004   SW A2, 4(V0)
---  /data01/build/bamboo/xml-data/build-dir/M32DEV-GMB34-JOB1/src/xc32-musl-stdlib/musl/musl-1.1.18/src/stdio/mchp/__pop_int.c
-----*  Optimizer-Generated Procedural Abstractions  *----------------------------------------------
9D00320C  24020088   ADDIU V0, ZERO, 136
9D003240  03E00008   JR RA
9D003244  00001025   OR V0, ZERO, ZERO
9D003248  50A2003A   BEQL A1, V0, 0x9D003334
9D00324C  8CE20000   LW V0, 0(A3)
9D003250  24020084   ADDIU V0, ZERO, 132
9D003254  14A2FFFA   BNE A1, V0, 0x9D003240
9D003258  00000000   NOP
9D00325C  8CE20000   LW V0, 0(A3)
9D003260  24430004   ADDIU V1, V0, 4
9D003264  8C420000   LW V0, 0(V0)
9D003268  10C00026   BEQ A2, ZERO, 0x9D003304
9D00326C  ACE30000   SW V1, 0(A3)
9D003270  7C021620   SEH V0, V0
9D003274  AC820000   SW V0, 0(A0)
9D003278  000217C3   SRA V0, V0, 31
9D00327C  AC820004   SW V0, 4(A0)
9D003280  03E00008   JR RA
9D003284  24020001   ADDIU V0, ZERO, 1
9D003288  50A20036   BEQL A1, V0, 0x9D003364
9D00328C  8CE20000   LW V0, 0(A3)
9D003290  28A200A1   SLTI V0, A1, 161
9D003294  10400011   BEQ V0, ZERO, 0x9D0032DC
9D003298  240200C0   ADDIU V0, ZERO, 192
9D00329C  24020090   ADDIU V0, ZERO, 144
9D0032A0  14A2FFE7   BNE A1, V0, 0x9D003240
9D0032A4  00000000   NOP
9D0032A8  8CE20000   LW V0, 0(A3)
9D0032AC  24420007   ADDIU V0, V0, 7
9D0032B0  7C021004   INS V0, ZERO, 0, 3
9D0032B4  8C480000   LW T0, 0(V0)
9D0032B8  8C490004   LW T1, 4(V0)
9D0032BC  24420008   ADDIU V0, V0, 8
9D0032C0  ACE20000   SW V0, 0(A3)
9D0032C4  AC880000   SW T0, 0(A0)
9D0032C8  AC890004   SW T1, 4(A0)
9D0032CC  10C00001   BEQ A2, ZERO, 0x9D0032D4
9D0032D0  24020001   ADDIU V0, ZERO, 1
9D0032D4  03E00008   JR RA
9D0032D8  00000000   NOP
9D0032DC  50A20005   BEQL A1, V0, 0x9D0032F4
9D0032E0  8CE20000   LW V0, 0(A3)
9D0032E4  240200F0   ADDIU V0, ZERO, 240
9D0032E8  14A2FFD5   BNE A1, V0, 0x9D003240
9D0032EC  00000000   NOP
9D0032F0  8CE20000   LW V0, 0(A3)
9D0032F4  24430004   ADDIU V1, V0, 4
9D0032F8  ACE30000   SW V1, 0(A3)
9D0032FC  10000002   BEQ ZERO, ZERO, 0x9D003308
9D003300  8C420000   LW V0, 0(V0)
9D003304  3042FFFF   ANDI V0, V0, -1
9D003308  10000020   BEQ ZERO, ZERO, 0x9D00338C
9D00330C  AC820000   SW V0, 0(A0)
9D003310  8CE20000   LW V0, 0(A3)
9D003314  24430004   ADDIU V1, V0, 4
9D003318  8C420000   LW V0, 0(V0)
9D00331C  10C00003   BEQ A2, ZERO, 0x9D00332C
9D003320  ACE30000   SW V1, 0(A3)
9D003324  1000FFD3   BEQ ZERO, ZERO, 0x9D003274
9D003328  7C021420   SEB V0, V0
9D00332C  1000FFF6   BEQ ZERO, ZERO, 0x9D003308
9D003330  304200FF   ANDI V0, V0, 255
9D003334  24420007   ADDIU V0, V0, 7
9D003338  7C021004   INS V0, ZERO, 0, 3
9D00333C  8C480000   LW T0, 0(V0)
9D003340  8C490004   LW T1, 4(V0)
9D003344  24420008   ADDIU V0, V0, 8
9D003348  ACE20000   SW V0, 0(A3)
9D00334C  AC880000   SW T0, 0(A0)
9D003350  AC890004   SW T1, 4(A0)
9D003354  10C0FFDF   BEQ A2, ZERO, 0x9D0032D4
9D003358  24020001   ADDIU V0, ZERO, 1
9D00335C  03E00008   JR RA
9D003360  00000000   NOP
9D003364  24430004   ADDIU V1, V0, 4
9D003368  ACE30000   SW V1, 0(A3)
9D00336C  1000FFC1   BEQ ZERO, ZERO, 0x9D003274
9D003370  8C420000   LW V0, 0(V0)
9D003374  8CE20000   LW V0, 0(A3)
9D003378  24430004   ADDIU V1, V0, 4
9D00337C  ACE30000   SW V1, 0(A3)
9D003380  8C420000   LW V0, 0(V0)
9D003384  14C0FFBC   BNE A2, ZERO, 0x9D003278
9D003388  AC820000   SW V0, 0(A0)
9D00338C  1000FFBC   BEQ ZERO, ZERO, 0x9D003280
9D003390  AC800004   SW ZERO, 4(A0)
---  /data01/build/bamboo/xml-data/build-dir/M32DEV-GMB34-JOB1/src/xc32-musl-stdlib/musl/musl-1.1.18/src/stdio/mchp/__pop_float.c
-----*  Optimizer-Generated Procedural Abstractions  *----------------------------------------------
9D0049E0  28A30080   SLTI V1, A1, 128
9D004A00  8CC20000   LW V0, 0(A2)
9D004A04  24420007   ADDIU V0, V0, 7
9D004A08  7C021004   INS V0, ZERO, 0, 3
9D004A0C  24430008   ADDIU V1, V0, 8
9D004A10  ACC30000   SW V1, 0(A2)
9D004A14  8C430004   LW V1, 4(V0)
9D004A18  8C420000   LW V0, 0(V0)
9D004A1C  AC830004   SW V1, 4(A0)
9D004A20  AC820000   SW V0, 0(A0)
9D004A24  24020001   ADDIU V0, ZERO, 1
9D004A28  03E00008   JR RA
9D004A2C  00000000   NOP
---  /data01/build/bamboo/xml-data/build-dir/M32DEV-GMB34-JOB1/src/xc32-musl-stdlib/musl/musl-1.1.18/src/stdio/mchp/__out.c
-----*  Optimizer-Generated Procedural Abstractions  *----------------------------------------------
9D004320  8C820004   LW V0, 4(A0)
9D004324  27BDFFE0   ADDIU SP, SP, -32
9D004328  AFBF001C   SW RA, 28(SP)
9D00432C  30470100   ANDI A3, V0, 256
9D004330  AFB10018   SW S1, 24(SP)
9D004334  10E00016   BEQ A3, ZERO, 0x9D004390
9D004338  AFB00014   SW S0, 20(SP)
9D00433C  8C820010   LW V0, 16(A0)
9D004340  00808025   OR S0, A0, ZERO
9D004344  00C01825   OR V1, A2, ZERO
9D004348  00C2882B   SLTU S1, A2, V0
9D00434C  8C840014   LW A0, 20(A0)
9D004350  0051180A   MOVZ V1, V0, S1
9D004354  00603025   OR A2, V1, ZERO
9D004358  0F40136F   JAL memcpy
9D00435C  00608825   OR S1, V1, ZERO
9D004360  8E020014   LW V0, 20(S0)
9D004364  8E030010   LW V1, 16(S0)
9D004368  00511021   ADDU V0, V0, S1
9D00436C  00718823   SUBU S1, V1, S1
9D004370  AE020014   SW V0, 20(S0)
9D004374  AE110010   SW S1, 16(S0)
9D004378  A0400000   SB ZERO, 0(V0)
9D00437C  8FBF001C   LW RA, 28(SP)
9D004380  8FB10018   LW S1, 24(SP)
9D004384  8FB00014   LW S0, 20(SP)
9D004388  03E00008   JR RA
9D00438C  27BD0020   ADDIU SP, SP, 32
9D004390  30420010   ANDI V0, V0, 16
9D004394  5440FFFA   BNEL V0, ZERO, 0x9D004380
9D004398  8FBF001C   LW RA, 28(SP)
9D00439C  0F4013B3   JAL __stdio_write_unbuffered, __fwrite, __stdio_write, __fwrite_min
9D0043A0  00000000   NOP
9D0043A4  1000FFF6   BEQ ZERO, ZERO, 0x9D004380
9D0043A8  8FBF001C   LW RA, 28(SP)
9D004ECC  8C840000   LW A0, 0(A0)
9D004ED0  27BDFFE8   ADDIU SP, SP, -24
9D004ED4  AFBF0014   SW RA, 20(SP)
9D004ED8  0F4010EB   JAL write
9D004EDC  00000000   NOP
9D004EE0  8FBF0014   LW RA, 20(SP)
9D004EE4  03E00008   JR RA
9D004EE8  27BD0018   ADDIU SP, SP, 24
---  /data01/build/bamboo/xml-data/build-dir/M32DEV-GMB34-JOB1/src/xc32-musl-stdlib/musl/musl-1.1.18/src/stdio/mchp/__io_init_needed.c
-----*  Optimizer-Generated Procedural Abstractions  *----------------------------------------------
---  /data01/build/bamboo/xml-data/build-dir/M32DEV-GMB34-JOB1/src/xc32-musl-stdlib/musl/musl-1.1.18/src/stdio/mchp/__io_file_needed.c
-----*  Optimizer-Generated Procedural Abstractions  *----------------------------------------------
---  /data01/build/bamboo/xml-data/build-dir/M32DEV-GMB34-JOB1/src/xc32-musl-stdlib/musl/musl-1.1.18/src/stdio/mchp/__init_stdio.c
-----*  Optimizer-Generated Procedural Abstractions  *----------------------------------------------
9D004DE8  27BDFFE8   ADDIU SP, SP, -24
9D004DF0  0F4013AB   JAL __init_stdout
9D004DF4  00000000   NOP
9D004DF8  0F401427   JAL __init_stdin, __init_stderr, __dummy
9D004DFC  00000000   NOP
9D004E00  0F401427   JAL __init_stdin, __init_stderr, __dummy
9D004E04  00000000   NOP
9D004E08  8FBF0014   LW RA, 20(SP)
9D004E0C  03E00008   JR RA
9D004E10  27BD0018   ADDIU SP, SP, 24
9D00509C  03E00008   JR RA
---  /data01/build/bamboo/xml-data/build-dir/M32DEV-GMB34-JOB1/src/xc32-musl-stdlib/musl/musl-1.1.18/src/stdio/mchp/__fopen.c
-----*  Optimizer-Generated Procedural Abstractions  *----------------------------------------------
9D0045FC  27BDFFE8   ADDIU SP, SP, -24
9D004608  0F400A67   JAL malloc
9D00460C  24040038   ADDIU A0, ZERO, 56
9D004610  1040000D   BEQ V0, ZERO, 0x9D004648
9D004614  00408025   OR S0, V0, ZERO
9D004618  24060038   ADDIU A2, ZERO, 56
9D00461C  00002825   OR A1, ZERO, ZERO
9D004620  0F4013A2   JAL memset
9D004624  00402025   OR A0, V0, ZERO
9D004628  3C029D00   LUI V0, -25344
9D00462C  24424ECC   ADDIU V0, V0, 20172
9D004630  AE02002C   SW V0, 44(S0)
9D004634  3C029D00   LUI V0, -25344
9D004638  24425058   ADDIU V0, V0, 20568
9D00463C  AE020030   SW V0, 48(S0)
9D004640  2402FFFF   ADDIU V0, ZERO, -1
9D004644  A2020034   SB V0, 52(S0)
9D004648  8FBF0014   LW RA, 20(SP)
9D00464C  02001025   OR V0, S0, ZERO
9D004650  8FB00010   LW S0, 16(SP)
9D004654  03E00008   JR RA
9D004658  27BD0018   ADDIU SP, SP, 24
9D004F98  27BDFFE8   ADDIU SP, SP, -24
9D004F9C  AFBF0014   SW RA, 20(SP)
9D004FA0  0F40117F   JAL __fopen_rw, __fopen_std
9D004FA4  00000000   NOP
9D004FA8  8FBF0014   LW RA, 20(SP)
9D004FAC  03E00008   JR RA
9D004FB0  27BD0018   ADDIU SP, SP, 24
9D005058  00001025   OR V0, ZERO, ZERO
---  /data01/build/bamboo/xml-data/build-dir/M32DEV-GMB34-JOB1/src/xc32-musl-stdlib/musl/musl-1.1.18/src/stdio/mchp/__fmt_x.c
-----*  Optimizer-Generated Procedural Abstractions  *----------------------------------------------
9D002E60  27BDFFA8   ADDIU SP, SP, -88
9D002E68  8CB10004   LW S1, 4(A1)
9D002E6C  AFBE0050   SW FP, 80(SP)
9D002E70  AFB7004C   SW S7, 76(SP)
9D002E74  AFB50044   SW S5, 68(SP)
9D002E78  AFB3003C   SW S3, 60(SP)
9D002E7C  00E04825   OR T1, A3, ZERO
9D002E80  AFBF0054   SW RA, 84(SP)
9D002E84  AFB60048   SW S6, 72(SP)
9D002E88  AFB40040   SW S4, 64(SP)
9D002E8C  AFB20038   SW S2, 56(SP)
9D002E90  AFB00030   SW S0, 48(SP)
9D002E94  00809825   OR S3, A0, ZERO
9D002E98  00A0A825   OR S5, A1, ZERO
9D002E9C  8CA70008   LW A3, 8(A1)
9D002EA0  8CBE0000   LW FP, 0(A1)
9D002EA4  0620004C   BLTZ S1, 0x9D002FD8
9D002EA8  8CB7000C   LW S7, 12(A1)
9D002EAC  7C1E0844   INS FP, ZERO, 1, 1
9D002EB0  33CA0010   ANDI T2, FP, 16
9D002EB4  8CD60000   LW S6, 0(A2)
9D002EB8  8CC80004   LW T0, 4(A2)
9D002EBC  11400004   BEQ T2, ZERO, 0x9D002ED0
9D002EC0  00E01025   OR V0, A3, ZERO
9D002EC4  02C81825   OR V1, S6, T0
9D002EC8  54600001   BNEL V1, ZERO, 0x9D002ED0
9D002ECC  24E2FFFE   ADDIU V0, A3, -2
9D002ED0  33CB0008   ANDI T3, FP, 8
9D002ED4  55600001   BNEL T3, ZERO, 0x9D002EDC
9D002ED8  2442FFFF   ADDIU V0, V0, -1
9D002EDC  8EB00010   LW S0, 16(S5)
9D002EE0  2534FFBF   ADDIU S4, T1, -65
9D002EE4  00519023   SUBU S2, V0, S1
9D002EE8  2610FFFF   ADDIU S0, S0, -1
9D002EEC  02F01821   ADDU V1, S7, S0
9D002EF0  A0600000   SB ZERO, 0(V1)
9D002EF4  33C50002   ANDI A1, FP, 2
9D002EF8  2E94001A   SLTIU S4, S4, 26
9D002EFC  2A020002   SLTI V0, S0, 2
9D002F00  1440000A   BNE V0, ZERO, 0x9D002F2C
9D002F04  02C81025   OR V0, S6, T0
9D002F08  14400035   BNE V0, ZERO, 0x9D002FE0
9D002F0C  32C3000F   ANDI V1, S6, 15
9D002F10  1E200034   BGTZ S1, 0x9D002FE4
9D002F14  2864000A   SLTI A0, V1, 10
9D002F18  02511021   ADDU V0, S2, S1
9D002F1C  18400003   BLEZ V0, 0x9D002F2C
9D002F20  00000000   NOP
9D002F24  54A00030   BNEL A1, ZERO, 0x9D002FE8
9D002F28  2610FFFF   ADDIU S0, S0, -1
9D002F2C  1140000B   BEQ T2, ZERO, 0x9D002F5C
9D002F30  00000000   NOP
9D002F34  8CC20000   LW V0, 0(A2)
9D002F38  8CC30004   LW V1, 4(A2)
9D002F3C  00431025   OR V0, V0, V1
9D002F40  10400006   BEQ V0, ZERO, 0x9D002F5C
9D002F44  02F01021   ADDU V0, S7, S0
9D002F48  2610FFFE   ADDIU S0, S0, -2
9D002F4C  A049FFFF   SB T1, -1(V0)
9D002F50  24030030   ADDIU V1, ZERO, 48
9D002F54  02F01021   ADDU V0, S7, S0
9D002F58  A0430000   SB V1, 0(V0)
9D002F5C  51600006   BEQL T3, ZERO, 0x9D002F78
9D002F60  8EA60010   LW A2, 16(S5)
9D002F64  2610FFFF   ADDIU S0, S0, -1
9D002F68  02F01021   ADDU V0, S7, S0
9D002F6C  24030020   ADDIU V1, ZERO, 32
9D002F70  A0430000   SB V1, 0(V0)
9D002F74  8EA60010   LW A2, 16(S5)
9D002F78  AFBE0010   SW FP, 16(SP)
9D002F7C  02F02821   ADDU A1, S7, S0
9D002F80  24C6FFFF   ADDIU A2, A2, -1
9D002F84  00D03023   SUBU A2, A2, S0
9D002F88  0F400E71   JAL __pad
9D002F8C  02602025   OR A0, S3, ZERO
9D002F90  8E630004   LW V1, 4(S3)
9D002F94  30630100   ANDI V1, V1, 256
9D002F98  10600004   BEQ V1, ZERO, 0x9D002FAC
9D002F9C  8FBF0054   LW RA, 84(SP)
9D002FA0  8EA30004   LW V1, 4(S5)
9D002FA4  0043202A   SLT A0, V0, V1
9D002FA8  0064100B   MOVN V0, V1, A0
9D002FAC  8FBE0050   LW FP, 80(SP)
9D002FB0  8FB7004C   LW S7, 76(SP)
9D002FB4  8FB60048   LW S6, 72(SP)
9D002FB8  8FB50044   LW S5, 68(SP)
9D002FBC  8FB40040   LW S4, 64(SP)
9D002FC0  8FB3003C   LW S3, 60(SP)
9D002FC4  8FB20038   LW S2, 56(SP)
9D002FC8  8FB10034   LW S1, 52(SP)
9D002FCC  8FB00030   LW S0, 48(SP)
9D002FD0  03E00008   JR RA
9D002FD4  27BD0058   ADDIU SP, SP, 88
9D002FD8  1000FFB5   BEQ ZERO, ZERO, 0x9D002EB0
9D002FDC  24110001   ADDIU S1, ZERO, 1
9D002FE0  2864000A   SLTI A0, V1, 10
9D002FE4  2610FFFF   ADDIU S0, S0, -1
9D002FE8  10800002   BEQ A0, ZERO, 0x9D002FF4
9D002FEC  24620057   ADDIU V0, V1, 87
9D002FF0  24620030   ADDIU V0, V1, 48
9D002FF4  12800017   BEQ S4, ZERO, 0x9D003054
9D002FF8  02F01821   ADDU V1, S7, S0
9D002FFC  34430020   ORI V1, V0, 32
9D003000  2463FF9F   ADDIU V1, V1, -97
9D003004  2C63001A   SLTIU V1, V1, 26
9D003008  10600012   BEQ V1, ZERO, 0x9D003054
9D00300C  02F01821   ADDU V1, S7, S0
9D003010  00402025   OR A0, V0, ZERO
9D003014  AFA50028   SW A1, 40(SP)
9D003018  AFA80024   SW T0, 36(SP)
9D00301C  AFA90064   SW T1, 100(SP)
9D003020  AFA60060   SW A2, 96(SP)
9D003024  AFA70020   SW A3, 32(SP)
9D003028  AFAB001C   SW T3, 28(SP)
9D00302C  0F4013D8   JAL toupper
9D003030  AFAA0018   SW T2, 24(SP)
9D003034  8FA50028   LW A1, 40(SP)
9D003038  8FA80024   LW T0, 36(SP)
9D00303C  8FA90064   LW T1, 100(SP)
9D003040  8FA60060   LW A2, 96(SP)
9D003044  8FA70020   LW A3, 32(SP)
9D003048  8FAB001C   LW T3, 28(SP)
9D00304C  8FAA0018   LW T2, 24(SP)
9D003050  02F01821   ADDU V1, S7, S0
9D003054  A0620000   SB V0, 0(V1)
9D003058  0016B102   SRL S6, S6, 4
9D00305C  00081700   SLL V0, T0, 28
9D003060  2631FFFF   ADDIU S1, S1, -1
9D003064  0056B025   OR S6, V0, S6
9D003068  1000FFA4   BEQ ZERO, ZERO, 0x9D002EFC
9D00306C  00084102   SRL T0, T0, 4
---  /data01/build/bamboo/xml-data/build-dir/M32DEV-GMB34-JOB1/src/xc32-musl-stdlib/musl/musl-1.1.18/src/stdio/mchp/__fmt_u.c
-----*  Optimizer-Generated Procedural Abstractions  *----------------------------------------------
9D003640  27BDFFC0   ADDIU SP, SP, -64
9D003644  8C820010   LW V0, 16(A0)
9D003648  AFB70034   SW S7, 52(SP)
9D00364C  8C880004   LW T0, 4(A0)
9D003650  8FB70058   LW S7, 88(SP)
9D003654  2442FFFF   ADDIU V0, V0, -1
9D003658  AFBE0038   SW FP, 56(SP)
9D00365C  AFB40028   SW S4, 40(SP)
9D003660  AFB30024   SW S3, 36(SP)
9D003664  AFB20020   SW S2, 32(SP)
9D003668  AFB1001C   SW S1, 28(SP)
9D00366C  AFB00018   SW S0, 24(SP)
9D003670  AFBF003C   SW RA, 60(SP)
9D003674  AFB60030   SW S6, 48(SP)
9D003678  AFB5002C   SW S5, 44(SP)
9D00367C  00C08025   OR S0, A2, ZERO
9D003680  00E08825   OR S1, A3, ZERO
9D003684  8FB30054   LW S3, 84(SP)
9D003688  8C94000C   LW S4, 12(A0)
9D00368C  8EFE0000   LW FP, 0(S7)
9D003690  05010002   BGEZ T0, 0x9D00369C
9D003694  00409025   OR S2, V0, ZERO
9D003698  24080001   ADDIU T0, ZERO, 1
9D00369C  02821021   ADDU V0, S4, V0
9D0036A0  A0400000   SB ZERO, 0(V0)
9D0036A4  0000A825   OR S5, ZERO, ZERO
9D0036A8  24090001   ADDIU T1, ZERO, 1
9D0036AC  33DE0002   ANDI FP, FP, 2
9D0036B0  0013B7C3   SRA S6, S3, 31
9D0036B4  1E400010   BGTZ S2, 0x9D0036F8
9D0036B8  02111025   OR V0, S0, S1
9D0036BC  5120002E   BEQL T1, ZERO, 0x9D003778
9D0036C0  8EE20000   LW V0, 0(S7)
9D0036C4  8FBF003C   LW RA, 60(SP)
9D0036C8  02401025   OR V0, S2, ZERO
9D0036CC  8FBE0038   LW FP, 56(SP)
9D0036D0  8FB70034   LW S7, 52(SP)
9D0036D4  8FB60030   LW S6, 48(SP)
9D0036D8  8FB5002C   LW S5, 44(SP)
9D0036DC  8FB40028   LW S4, 40(SP)
9D0036E0  8FB30024   LW S3, 36(SP)
9D0036E4  8FB20020   LW S2, 32(SP)
9D0036E8  8FB1001C   LW S1, 28(SP)
9D0036EC  8FB00018   LW S0, 24(SP)
9D0036F0  03E00008   JR RA
9D0036F4  27BD0040   ADDIU SP, SP, 64
9D0036F8  1440000A   BNE V0, ZERO, 0x9D003724
9D0036FC  02002025   OR A0, S0, ZERO
9D003700  01151023   SUBU V0, T0, S5
9D003704  1C400008   BGTZ V0, 0x9D003728
9D003708  02202825   OR A1, S1, ZERO
9D00370C  8FA20050   LW V0, 80(SP)
9D003710  00551023   SUBU V0, V0, S5
9D003714  1840FFE9   BLEZ V0, 0x9D0036BC
9D003718  00000000   NOP
9D00371C  13C0FFE7   BEQ FP, ZERO, 0x9D0036BC
9D003720  00000000   NOP
9D003724  02202825   OR A1, S1, ZERO
9D003728  02603025   OR A2, S3, ZERO
9D00372C  02C03825   OR A3, S6, ZERO
9D003730  AFA80014   SW T0, 20(SP)
9D003734  0F40086E   JAL __umoddi3
9D003738  2652FFFF   ADDIU S2, S2, -1
9D00373C  AFA20010   SW V0, 16(SP)
9D003740  02921821   ADDU V1, S4, S2
9D003744  24420030   ADDIU V0, V0, 48
9D003748  02002025   OR A0, S0, ZERO
9D00374C  02202825   OR A1, S1, ZERO
9D003750  A0620000   SB V0, 0(V1)
9D003754  02603025   OR A2, S3, ZERO
9D003758  0F40096C   JAL __udivdi3
9D00375C  02C03825   OR A3, S6, ZERO
9D003760  00408025   OR S0, V0, ZERO
9D003764  00608825   OR S1, V1, ZERO
9D003768  26B50001   ADDIU S5, S5, 1
9D00376C  8FA80014   LW T0, 20(SP)
9D003770  1000FFD0   BEQ ZERO, ZERO, 0x9D0036B4
9D003774  8FA90010   LW T1, 16(SP)
9D003778  7C022104   INS V0, ZERO, 4, 1
9D00377C  1000FFD1   BEQ ZERO, ZERO, 0x9D0036C4
9D003780  AEE20000   SW V0, 0(S7)
9D003F3C  8CA20000   LW V0, 0(A1)
9D003F40  8CA30004   LW V1, 4(A1)
9D003F44  27BDFFC0   ADDIU SP, SP, -64
9D003F48  AFB30038   SW S3, 56(SP)
9D003F4C  AFB20034   SW S2, 52(SP)
9D003F50  AFB10030   SW S1, 48(SP)
9D003F54  AFB0002C   SW S0, 44(SP)
9D003F58  AFBF003C   SW RA, 60(SP)
9D003F5C  00808825   OR S1, A0, ZERO
9D003F60  00A08025   OR S0, A1, ZERO
9D003F64  8CB20008   LW S2, 8(A1)
9D003F68  AFA20020   SW V0, 32(SP)
9D003F6C  04600003   BLTZ V1, 0x9D003F7C
9D003F70  8CB3000C   LW S3, 12(A1)
9D003F74  7C020844   INS V0, ZERO, 1, 1
9D003F78  AFA20020   SW V0, 32(SP)
9D003F7C  27A20020   ADDIU V0, SP, 32
9D003F80  AFA20018   SW V0, 24(SP)
9D003F84  2402000A   ADDIU V0, ZERO, 10
9D003F88  AFA20014   SW V0, 20(SP)
9D003F8C  AFB20010   SW S2, 16(SP)
9D003F90  8CC70004   LW A3, 4(A2)
9D003F94  8CC60000   LW A2, 0(A2)
9D003F98  0F400D90   JAL __cvt_u
9D003F9C  02002025   OR A0, S0, ZERO
9D003FA0  8E060010   LW A2, 16(S0)
9D003FA4  8FA30020   LW V1, 32(SP)
9D003FA8  02403825   OR A3, S2, ZERO
9D003FAC  24C6FFFF   ADDIU A2, A2, -1
9D003FB0  AFA30010   SW V1, 16(SP)
9D003FB4  00C23023   SUBU A2, A2, V0
9D003FB8  02622821   ADDU A1, S3, V0
9D003FBC  0F400E71   JAL __pad
9D003FC0  02202025   OR A0, S1, ZERO
9D003FC4  8E230004   LW V1, 4(S1)
9D003FC8  30630100   ANDI V1, V1, 256
9D003FCC  10600004   BEQ V1, ZERO, 0x9D003FE0
9D003FD0  8FBF003C   LW RA, 60(SP)
9D003FD4  8E030004   LW V1, 4(S0)
9D003FD8  0043202A   SLT A0, V0, V1
9D003FDC  0064100B   MOVN V0, V1, A0
9D003FE0  8FB30038   LW S3, 56(SP)
9D003FE4  8FB20034   LW S2, 52(SP)
9D003FE8  8FB10030   LW S1, 48(SP)
9D003FEC  8FB0002C   LW S0, 44(SP)
9D003FF0  03E00008   JR RA
9D003FF4  27BD0040   ADDIU SP, SP, 64
---  /data01/build/bamboo/xml-data/build-dir/M32DEV-GMB34-JOB1/src/xc32-musl-stdlib/musl/musl-1.1.18/src/stdio/mchp/__fmt_s.c
-----*  Optimizer-Generated Procedural Abstractions  *----------------------------------------------
9D004154  3C036C75   LUI V1, 27765
9D004158  27BDFFC8   ADDIU SP, SP, -56
9D00415C  24636E28   ADDIU V1, V1, 28200
9D004160  AFA30018   SW V1, 24(SP)
9D004164  2403296C   ADDIU V1, ZERO, 10604
9D004168  AFB40030   SW S4, 48(SP)
9D00416C  AFB3002C   SW S3, 44(SP)
9D004170  AFB20028   SW S2, 40(SP)
9D004174  AFB10024   SW S1, 36(SP)
9D004178  AFB00020   SW S0, 32(SP)
9D00417C  AFBF0034   SW RA, 52(SP)
9D004180  00809025   OR S2, A0, ZERO
9D004184  00E01025   OR V0, A3, ZERO
9D004188  A7A3001C   SH V1, 28(SP)
9D00418C  A3A0001E   SB ZERO, 30(SP)
9D004190  8CB10004   LW S1, 4(A1)
9D004194  8CB30008   LW S3, 8(A1)
9D004198  8CB40000   LW S4, 0(A1)
9D00419C  10C00002   BEQ A2, ZERO, 0x9D0041A8
9D0041A0  27B00018   ADDIU S0, SP, 24
9D0041A4  00C08025   OR S0, A2, ZERO
9D0041A8  14400003   BNE V0, ZERO, 0x9D0041B8
9D0041AC  00000000   NOP
9D0041B0  0F401406   JAL strlen
9D0041B4  02002025   OR A0, S0, ZERO
9D0041B8  06200002   BLTZ S1, 0x9D0041C4
9D0041BC  0222182B   SLTU V1, S1, V0
9D0041C0  0223100B   MOVN V0, S1, V1
9D0041C4  AFB40010   SW S4, 16(SP)
9D0041C8  02603825   OR A3, S3, ZERO
9D0041CC  02002825   OR A1, S0, ZERO
9D0041D0  02402025   OR A0, S2, ZERO
9D0041D4  0F400E71   JAL __pad
9D0041D8  00403025   OR A2, V0, ZERO
9D0041DC  8FBF0034   LW RA, 52(SP)
9D0041E0  8FB40030   LW S4, 48(SP)
9D0041E4  8FB3002C   LW S3, 44(SP)
9D0041E8  8FB20028   LW S2, 40(SP)
9D0041EC  8FB10024   LW S1, 36(SP)
9D0041F0  8FB00020   LW S0, 32(SP)
9D0041F4  03E00008   JR RA
9D0041F8  27BD0038   ADDIU SP, SP, 56
---  /data01/build/bamboo/xml-data/build-dir/M32DEV-GMB34-JOB1/src/xc32-musl-stdlib/musl/musl-1.1.18/src/stdio/mchp/__fmt_o.c
-----*  Optimizer-Generated Procedural Abstractions  *----------------------------------------------
9D003AC8  8CA20000   LW V0, 0(A1)
9D003ACC  8CA30004   LW V1, 4(A1)
9D003AD0  27BDFFC0   ADDIU SP, SP, -64
9D003AD4  AFB30038   SW S3, 56(SP)
9D003AD8  AFB20034   SW S2, 52(SP)
9D003ADC  AFB10030   SW S1, 48(SP)
9D003AE0  AFB0002C   SW S0, 44(SP)
9D003AE4  AFBF003C   SW RA, 60(SP)
9D003AE8  00809025   OR S2, A0, ZERO
9D003AEC  00A08025   OR S0, A1, ZERO
9D003AF0  8CB30008   LW S3, 8(A1)
9D003AF4  AFA20020   SW V0, 32(SP)
9D003AF8  04600003   BLTZ V1, 0x9D003B08
9D003AFC  8CB1000C   LW S1, 12(A1)
9D003B00  7C020844   INS V0, ZERO, 1, 1
9D003B04  AFA20020   SW V0, 32(SP)
9D003B08  27A20020   ADDIU V0, SP, 32
9D003B0C  AFA20018   SW V0, 24(SP)
9D003B10  24020008   ADDIU V0, ZERO, 8
9D003B14  AFA20014   SW V0, 20(SP)
9D003B18  AFB30010   SW S3, 16(SP)
9D003B1C  8CC70004   LW A3, 4(A2)
9D003B20  8CC60000   LW A2, 0(A2)
9D003B24  0F400D90   JAL __cvt_u
9D003B28  02002025   OR A0, S0, ZERO
9D003B2C  8FA30020   LW V1, 32(SP)
9D003B30  30630010   ANDI V1, V1, 16
9D003B34  10600006   BEQ V1, ZERO, 0x9D003B50
9D003B38  8FA30020   LW V1, 32(SP)
9D003B3C  2442FFFF   ADDIU V0, V0, -1
9D003B40  02221821   ADDU V1, S1, V0
9D003B44  24040030   ADDIU A0, ZERO, 48
9D003B48  A0640000   SB A0, 0(V1)
9D003B4C  8FA30020   LW V1, 32(SP)
9D003B50  30630008   ANDI V1, V1, 8
9D003B54  50600006   BEQL V1, ZERO, 0x9D003B70
9D003B58  8E060010   LW A2, 16(S0)
9D003B5C  2442FFFF   ADDIU V0, V0, -1
9D003B60  02221821   ADDU V1, S1, V0
9D003B64  24040020   ADDIU A0, ZERO, 32
9D003B68  A0640000   SB A0, 0(V1)
9D003B6C  8E060010   LW A2, 16(S0)
9D003B70  8FA30020   LW V1, 32(SP)
9D003B74  02603825   OR A3, S3, ZERO
9D003B78  24C6FFFF   ADDIU A2, A2, -1
9D003B7C  AFA30010   SW V1, 16(SP)
9D003B80  00C23023   SUBU A2, A2, V0
9D003B84  02222821   ADDU A1, S1, V0
9D003B88  0F400E71   JAL __pad
9D003B8C  02402025   OR A0, S2, ZERO
9D003B90  8E430004   LW V1, 4(S2)
9D003B94  30630100   ANDI V1, V1, 256
9D003B98  10600004   BEQ V1, ZERO, 0x9D003BAC
9D003B9C  8FBF003C   LW RA, 60(SP)
9D003BA0  8E030004   LW V1, 4(S0)
9D003BA4  0043202A   SLT A0, V0, V1
9D003BA8  0064100B   MOVN V0, V1, A0
9D003BAC  8FB30038   LW S3, 56(SP)
9D003BB0  8FB20034   LW S2, 52(SP)
9D003BB4  8FB10030   LW S1, 48(SP)
9D003BB8  8FB0002C   LW S0, 44(SP)
9D003BBC  03E00008   JR RA
9D003BC0  27BD0040   ADDIU SP, SP, 64
---  /data01/build/bamboo/xml-data/build-dir/M32DEV-GMB34-JOB1/src/xc32-musl-stdlib/musl/musl-1.1.18/src/stdio/mchp/__fmt_d.c
-----*  Optimizer-Generated Procedural Abstractions  *----------------------------------------------
9D003394  27BDFFC0   ADDIU SP, SP, -64
9D003398  AFB1002C   SW S1, 44(SP)
9D00339C  00808825   OR S1, A0, ZERO
9D0033A0  00C02025   OR A0, A2, ZERO
9D0033A4  8C870004   LW A3, 4(A0)
9D0033A8  8CA20000   LW V0, 0(A1)
9D0033AC  AFB20030   SW S2, 48(SP)
9D0033B0  000797C2   SRL S2, A3, 31
9D0033B4  AFB40038   SW S4, 56(SP)
9D0033B8  AFB30034   SW S3, 52(SP)
9D0033BC  AFB00028   SW S0, 40(SP)
9D0033C0  AFBF003C   SW RA, 60(SP)
9D0033C4  00A08025   OR S0, A1, ZERO
9D0033C8  8CA30004   LW V1, 4(A1)
9D0033CC  8CB30008   LW S3, 8(A1)
9D0033D0  AFA20020   SW V0, 32(SP)
9D0033D4  8CB4000C   LW S4, 12(A1)
9D0033D8  12400040   BEQ S2, ZERO, 0x9D0034DC
9D0033DC  8CC60000   LW A2, 0(A2)
9D0033E0  00063023   SUBU A2, ZERO, A2
9D0033E4  0006202B   SLTU A0, ZERO, A2
9D0033E8  00073823   SUBU A3, ZERO, A3
9D0033EC  04600008   BLTZ V1, 0x9D003410
9D0033F0  00E43823   SUBU A3, A3, A0
9D0033F4  7C020844   INS V0, ZERO, 1, 1
9D0033F8  16400005   BNE S2, ZERO, 0x9D003410
9D0033FC  AFA20020   SW V0, 32(SP)
9D003400  8FA20020   LW V0, 32(SP)
9D003404  30430004   ANDI V1, V0, 4
9D003408  1060002C   BEQ V1, ZERO, 0x9D0034BC
9D00340C  7C4200C0   EXT V0, V0, 3, 1
9D003410  2662FFFF   ADDIU V0, S3, -1
9D003414  27A30020   ADDIU V1, SP, 32
9D003418  AFA30018   SW V1, 24(SP)
9D00341C  2403000A   ADDIU V1, ZERO, 10
9D003420  AFA30014   SW V1, 20(SP)
9D003424  AFA20010   SW V0, 16(SP)
9D003428  0F400D90   JAL __cvt_u
9D00342C  02002025   OR A0, S0, ZERO
9D003430  16400006   BNE S2, ZERO, 0x9D00344C
9D003434  2403002D   ADDIU V1, ZERO, 45
9D003438  8FA30020   LW V1, 32(SP)
9D00343C  30640004   ANDI A0, V1, 4
9D003440  10800020   BEQ A0, ZERO, 0x9D0034C4
9D003444  30630008   ANDI V1, V1, 8
9D003448  2403002D   ADDIU V1, ZERO, 45
9D00344C  2442FFFF   ADDIU V0, V0, -1
9D003450  2404002B   ADDIU A0, ZERO, 43
9D003454  0072200B   MOVN A0, V1, S2
9D003458  02821821   ADDU V1, S4, V0
9D00345C  A0640000   SB A0, 0(V1)
9D003460  8E060010   LW A2, 16(S0)
9D003464  8FA30020   LW V1, 32(SP)
9D003468  02603825   OR A3, S3, ZERO
9D00346C  24C6FFFF   ADDIU A2, A2, -1
9D003470  AFA30010   SW V1, 16(SP)
9D003474  00C23023   SUBU A2, A2, V0
9D003478  02822821   ADDU A1, S4, V0
9D00347C  0F400E71   JAL __pad
9D003480  02202025   OR A0, S1, ZERO
9D003484  8E230004   LW V1, 4(S1)
9D003488  30630100   ANDI V1, V1, 256
9D00348C  10600004   BEQ V1, ZERO, 0x9D0034A0
9D003490  8FBF003C   LW RA, 60(SP)
9D003494  8E030004   LW V1, 4(S0)
9D003498  0043202A   SLT A0, V0, V1
9D00349C  0064100B   MOVN V0, V1, A0
9D0034A0  8FB40038   LW S4, 56(SP)
9D0034A4  8FB30034   LW S3, 52(SP)
9D0034A8  8FB20030   LW S2, 48(SP)
9D0034AC  8FB1002C   LW S1, 44(SP)
9D0034B0  8FB00028   LW S0, 40(SP)
9D0034B4  03E00008   JR RA
9D0034B8  27BD0040   ADDIU SP, SP, 64
9D0034BC  1000FFD5   BEQ ZERO, ZERO, 0x9D003414
9D0034C0  02621023   SUBU V0, S3, V0
9D0034C4  5060FFE7   BEQL V1, ZERO, 0x9D003464
9D0034C8  8E060010   LW A2, 16(S0)
9D0034CC  2442FFFF   ADDIU V0, V0, -1
9D0034D0  02821821   ADDU V1, S4, V0
9D0034D4  1000FFE1   BEQ ZERO, ZERO, 0x9D00345C
9D0034D8  24040020   ADDIU A0, ZERO, 32
9D0034DC  0463FFC6   BGEZL V1, 0x9D0033F8
9D0034E0  7C020844   INS V0, ZERO, 1, 1
9D0034E4  1000FFC7   BEQ ZERO, ZERO, 0x9D003404
9D0034E8  8FA20020   LW V0, 32(SP)
---  /data01/build/bamboo/xml-data/build-dir/M32DEV-GMB34-JOB1/src/xc32-musl-stdlib/musl/musl-1.1.18/src/stdio/fputs.c
-----*  Optimizer-Generated Procedural Abstractions  *----------------------------------------------
9D004830  27BDFFE0   ADDIU SP, SP, -32
9D004834  AFBF001C   SW RA, 28(SP)
9D004838  AFB20018   SW S2, 24(SP)
9D00483C  AFB10014   SW S1, 20(SP)
9D004840  AFB00010   SW S0, 16(SP)
9D004844  00A09025   OR S2, A1, ZERO
9D004848  0F401406   JAL strlen
9D00484C  00808825   OR S1, A0, ZERO
9D004850  00403025   OR A2, V0, ZERO
9D004854  02403825   OR A3, S2, ZERO
9D004858  02202025   OR A0, S1, ZERO
9D00485C  24050001   ADDIU A1, ZERO, 1
9D004860  0F401197   JAL fwrite
9D004864  00408025   OR S0, V0, ZERO
9D004868  8FBF001C   LW RA, 28(SP)
9D00486C  00501026   XOR V0, V0, S0
9D004870  0002102B   SLTU V0, ZERO, V0
9D004874  00021023   SUBU V0, ZERO, V0
9D004878  8FB20018   LW S2, 24(SP)
9D00487C  8FB10014   LW S1, 20(SP)
9D004880  8FB00010   LW S0, 16(SP)
9D004884  03E00008   JR RA
9D004888  27BD0020   ADDIU SP, SP, 32
---  /data01/build/bamboo/xml-data/build-dir/M32DEV-GMB34-JOB1/src/xc32-musl-stdlib/musl/musl-1.1.18/src/smartio/__sio_printf_s.c
-----*  Optimizer-Generated Procedural Abstractions  *----------------------------------------------
9D004F0C  27BDFFE8   ADDIU SP, SP, -24
9D004F10  AFBF0014   SW RA, 20(SP)
9D004F14  0F401055   JAL __fmt_s
9D004F18  00000000   NOP
9D004F1C  8FBF0014   LW RA, 20(SP)
9D004F20  03E00008   JR RA
9D004F24  27BD0018   ADDIU SP, SP, 24
---  /data01/build/bamboo/xml-data/build-dir/M32DEV-GMB34-JOB1/src/xc32-musl-stdlib/musl/musl-1.1.18/src/smartio/__sio_printf_doux.c
-----*  Optimizer-Generated Procedural Abstractions  *----------------------------------------------
9D004C5C  27BDFFE8   ADDIU SP, SP, -24
9D004C60  AFBF0014   SW RA, 20(SP)
9D004C64  0F400CE5   JAL __fmt_d
9D004C68  00000000   NOP
9D004C6C  0F400EB2   JAL __fmt_o
9D004C70  00000000   NOP
9D004C74  0F400FCF   JAL __fmt_u
9D004C78  00000000   NOP
9D004C7C  0F400B98   JAL __fmt_x
9D004C80  00000000   NOP
9D004C84  0F401055   JAL __fmt_s
9D004C88  00000000   NOP
9D004C8C  8FBF0014   LW RA, 20(SP)
9D004C90  03E00008   JR RA
9D004C94  27BD0018   ADDIU SP, SP, 24
---  /data01/build/bamboo/xml-data/build-dir/M32DEV-GMB34-JOB1/src/xc32-musl-stdlib/musl/musl-1.1.18/src/smartio/__int_vfprintf.c
-----*  Optimizer-Generated Procedural Abstractions  *----------------------------------------------
9D004CD4  27BDFFE0   ADDIU SP, SP, -32
9D004CD8  AFB00018   SW S0, 24(SP)
9D004CDC  AFA60010   SW A2, 16(SP)
9D004CE0  00808025   OR S0, A0, ZERO
9D004CE4  AFBF001C   SW RA, 28(SP)
9D004CE8  0F4005F4   JAL __printf_core
9D004CEC  27A60010   ADDIU A2, SP, 16
9D004CF0  8E030004   LW V1, 4(S0)
9D004CF4  8FBF001C   LW RA, 28(SP)
9D004CF8  2404FFFF   ADDIU A0, ZERO, -1
9D004CFC  30630010   ANDI V1, V1, 16
9D004D00  0083100B   MOVN V0, A0, V1
9D004D04  8FB00018   LW S0, 24(SP)
9D004D08  03E00008   JR RA
9D004D0C  27BD0020   ADDIU SP, SP, 32
---  /data01/build/bamboo/xml-data/build-dir/M32DEV-GMB34-JOB1/src/xc32-musl-stdlib/musl/musl-1.1.18/src/smartio/__int_printf.c
-----*  Optimizer-Generated Procedural Abstractions  *----------------------------------------------
9D004C20  3C02A000   LUI V0, -24576
9D004C28  27BDFFE0   ADDIU SP, SP, -32
9D004C2C  AFA50024   SW A1, 36(SP)
9D004C30  AFA60028   SW A2, 40(SP)
9D004C34  AFA7002C   SW A3, 44(SP)
9D004C38  00802825   OR A1, A0, ZERO
9D004C3C  8C440000   LW A0, 0(V0)
9D004C40  27A60024   ADDIU A2, SP, 36
9D004C44  AFBF001C   SW RA, 28(SP)
9D004C48  0F401335   JAL __vfprintf
9D004C4C  AFA60010   SW A2, 16(SP)
9D004C50  8FBF001C   LW RA, 28(SP)
9D004C54  03E00008   JR RA
9D004C58  27BD0020   ADDIU SP, SP, 32
9D004C98  3C02A000   LUI V0, -24576
9D004CA0  27BDFFE0   ADDIU SP, SP, -32
9D004CA4  AFA50024   SW A1, 36(SP)
9D004CA8  AFA60028   SW A2, 40(SP)
9D004CAC  AFA7002C   SW A3, 44(SP)
9D004CB0  00802825   OR A1, A0, ZERO
9D004CB4  8C440000   LW A0, 0(V0)
9D004CB8  27A60024   ADDIU A2, SP, 36
9D004CBC  AFBF001C   SW RA, 28(SP)
9D004CC0  0F401335   JAL __vfprintf
9D004CC4  AFA60010   SW A2, 16(SP)
9D004CC8  8FBF001C   LW RA, 28(SP)
9D004CCC  03E00008   JR RA
9D004CD0  27BD0020   ADDIU SP, SP, 32
---  /data01/build/bamboo/xml-data/build-dir/M32DEV-GMB34-JOB1/src/xc32-musl-stdlib/musl/musl-1.1.18/src/prng/mchp/rand.c
-----*  Optimizer-Generated Procedural Abstractions  *----------------------------------------------
9D004E40  3C04A000   LUI A0, -24576
9D004E44  8C82020C   LW V0, 524(A0)
9D004E48  3C034C95   LUI V1, 19605
9D004E4C  24637F2D   ADDIU V1, V1, 32557
9D004E50  70431002   MUL V0, V0, V1
9D004E54  24420001   ADDIU V0, V0, 1
9D004E58  AC82020C   SW V0, 524(A0)
9D004E5C  03E00008   JR RA
9D004E60  00021442   SRL V0, V0, 17
9D005030  2484FFFF   ADDIU A0, A0, -1
9D005034  3C02A000   LUI V0, -24576
9D005038  03E00008   JR RA
9D00503C  AC44020C   SW A0, 524(V0)
---  /data01/build/bamboo/xml-data/build-dir/M32DEV-GMB34-JOB1/src/xc32-musl-stdlib/musl/musl-1.1.18/src/malloc/pic32m/expand_heap.c
-----*  Optimizer-Generated Procedural Abstractions  *----------------------------------------------
9D004BE4  8C840000   LW A0, 0(A0)
9D004BE8  04810003   BGEZ A0, 0x9D004BF8
9D004BEC  00001025   OR V0, ZERO, ZERO
9D004BF0  03E00008   JR RA
9D004BF4  00000000   NOP
9D004BF8  27BDFFE8   ADDIU SP, SP, -24
9D004BFC  AFBF0014   SW RA, 20(SP)
9D004C00  0F400FFE   JAL _sbrk
9D004C04  00000000   NOP
9D004C08  2403FFFF   ADDIU V1, ZERO, -1
9D004C0C  50430001   BEQL V0, V1, 0x9D004C14
9D004C10  00001025   OR V0, ZERO, ZERO
9D004C14  8FBF0014   LW RA, 20(SP)
9D004C18  03E00008   JR RA
9D004C1C  27BD0018   ADDIU SP, SP, 24
---  /data01/build/bamboo/xml-data/build-dir/M32DEV-GMB34-JOB1/src/xc32-musl-stdlib/musl/musl-1.1.18/src/malloc/mchp/malloc.c
-----*  Optimizer-Generated Procedural Abstractions  *----------------------------------------------
9D00299C  27BDFFD8   ADDIU SP, SP, -40
9D0029A0  AFA40028   SW A0, 40(SP)
9D0029A4  27A40028   ADDIU A0, SP, 40
9D0029A8  AFBF0024   SW RA, 36(SP)
9D0029AC  AFB10020   SW S1, 32(SP)
9D0029B0  0F401223   JAL adjust_size
9D0029B4  AFB0001C   SW S0, 28(SP)
9D0029B8  04410007   BGEZ V0, malloc::bin_index_up
9D0029BC  8FA20028   LW V0, 40(SP)
9D0029C0  00001025   OR V0, ZERO, ZERO
9D0029C4  8FBF0024   LW RA, 36(SP)
9D0029C8  8FB10020   LW S1, 32(SP)
9D0029CC  8FB0001C   LW S0, 28(SP)
9D0029D0  03E00008   JR RA
9D0029D4  27BD0028   ADDIU SP, SP, 40
9D0029D8  00021102   SRL V0, V0, 4
9D0029DC  2451FFFF   ADDIU S1, V0, -1
9D0029E0  2E230021   SLTIU V1, S1, 33
9D0029E4  14600009   BNE V1, ZERO, 0x9D002A0C
9D0029E8  2442FFFE   ADDIU V0, V0, -2
9D0029EC  3C039D00   LUI V1, -25344
9D0029F0  2C440200   SLTIU A0, V0, 512
9D0029F4  10800023   BEQ A0, ZERO, malloc::bin_index_up
9D0029F8  2463473C   ADDIU V1, V1, 18236
9D0029FC  000210C2   SRL V0, V0, 3
9D002A00  00621021   ADDU V0, V1, V0
9D002A04  9051FFFC   LBU S1, -4(V0)
9D002A08  26310001   ADDIU S1, S1, 1
9D002A0C  02203025   OR A2, S1, ZERO
9D002A10  24040001   ADDIU A0, ZERO, 1
9D002A14  0F401353   JAL __ashldi3
9D002A18  00002825   OR A1, ZERO, ZERO
9D002A1C  00025823   SUBU T3, ZERO, V0
9D002A20  000B382B   SLTU A3, ZERO, T3
9D002A24  00031823   SUBU V1, ZERO, V1
9D002A28  3C0AA000   LUI T2, -24576
9D002A2C  3C089D00   LUI T0, -25344
9D002A30  00673823   SUBU A3, V1, A3
9D002A34  2508471C   ADDIU T0, T0, 18204
9D002A3C  25490218   ADDIU T1, T2, 536
9D002A40  8D420218   LW V0, 536(T2)
9D002A44  8D43021C   LW V1, 540(T2)
9D002A48  01622824   AND A1, T3, V0
9D002A4C  00E31824   AND V1, A3, V1
9D002A50  00A32025   OR A0, A1, V1
9D002A54  14800039   BNE A0, ZERO, first_set
9D002A58  8FA20028   LW V0, 40(SP)
9D002A5C  27A40010   ADDIU A0, SP, 16
9D002A60  24420010   ADDIU V0, V0, 16
9D002A64  0F4012F9   JAL __expand_heap
9D002A68  AFA20010   SW V0, 16(SP)
9D002A6C  1440000A   BNE V0, ZERO, expand_heap
9D002A70  3C03A000   LUI V1, -24576
9D002A74  3C03A000   LUI V1, -24576
9D002A78  2404000C   ADDIU A0, ZERO, 12
9D002A7C  1000FFD1   BEQ ZERO, ZERO, 0x9D0029C4
9D002A80  AC640508   SW A0, 1288(V1)
9D002A84  000211C2   SRL V0, V0, 7
9D002A88  00621021   ADDU V0, V1, V0
9D002A8C  9051FFFC   LBU S1, -4(V0)
9D002A90  1000FFDE   BEQ ZERO, ZERO, 0x9D002A0C
9D002A94  26310011   ADDIU S1, S1, 17
9D002A98  8C710210   LW S1, 528(V1)
9D002A9C  10510006   BEQ V0, S1, 0x9D002AB8
9D002AA0  8FA40010   LW A0, 16(SP)
9D002AA4  24510010   ADDIU S1, V0, 16
9D002AA8  2484FFF0   ADDIU A0, A0, -16
9D002AAC  AFA40010   SW A0, 16(SP)
9D002AB0  24040001   ADDIU A0, ZERO, 1
9D002AB4  AC440008   SW A0, 8(V0)
9D002AB8  8FA20010   LW V0, 16(SP)
9D002ABC  2630FFF8   ADDIU S0, S1, -8
9D002AC0  02222021   ADDU A0, S1, V0
9D002AC4  AC640210   SW A0, 528(V1)
9D002AC8  34420001   ORI V0, V0, 1
9D002ACC  24030001   ADDIU V1, ZERO, 1
9D002AD0  AC82FFF8   SW V0, -8(A0)
9D002AD4  AC83FFFC   SW V1, -4(A0)
9D002AD8  1200FFB9   BEQ S0, ZERO, 0x9D0029C0
9D002ADC  AE22FFFC   SW V0, -4(S1)
9D002AE0  0F40112D   JAL alloc_rev
9D002AE4  02002025   OR A0, S0, ZERO
9D002AE8  10400010   BEQ V0, ZERO, 0x9D002B2C
9D002AEC  8FA50028   LW A1, 40(SP)
9D002AF0  8E23FFF8   LW V1, -8(S1)
9D002AF4  2402FFFE   ADDIU V0, ZERO, -2
9D002AF8  8E25FFFC   LW A1, -4(S1)
9D002AFC  00431824   AND V1, V0, V1
9D002B00  02031823   SUBU V1, S0, V1
9D002B04  8C640004   LW A0, 4(V1)
9D002B08  00442024   AND A0, V0, A0
9D002B0C  00852021   ADDU A0, A0, A1
9D002B10  AC640004   SW A0, 4(V1)
9D002B14  8E25FFFC   LW A1, -4(S1)
9D002B18  00451024   AND V0, V0, A1
9D002B1C  02028021   ADDU S0, S0, V0
9D002B20  AE040000   SW A0, 0(S0)
9D002B24  00608025   OR S0, V1, ZERO
9D002B28  8FA50028   LW A1, 40(SP)
9D002B2C  0F401239   JAL trim
9D002B30  02002025   OR A0, S0, ZERO
9D002B34  1000FFA3   BEQ ZERO, ZERO, 0x9D0029C4
9D002B38  26020008   ADDIU V0, S0, 8
9D002B3C  54A00032   BNEL A1, ZERO, first_set
9D002B40  00052023   SUBU A0, ZERO, A1
9D002B64  0F401362   JAL lock_bin
9D002B68  00C02025   OR A0, A2, ZERO
9D002B6C  24C40001   ADDIU A0, A2, 1
9D002B70  000420C0   SLL A0, A0, 3
9D002B74  00891021   ADDU V0, A0, T1
9D002B78  8C500000   LW S0, 0(V0)
9D002B7C  2484FFF8   ADDIU A0, A0, -8
9D002B80  01242021   ADDU A0, T1, A0
9D002B84  1204FFAE   BEQ S0, A0, 0x9D002A40
9D002B88  28C20028   SLTI V0, A2, 40
9D002B8C  14400025   BNE V0, ZERO, 0x9D002C24
9D002B90  26310002   ADDIU S1, S1, 2
9D002B94  0226882A   SLT S1, S1, A2
9D002B98  56200005   BNEL S1, ZERO, 0x9D002BB0
9D002B9C  8E070004   LW A3, 4(S0)
9D002BA0  2402003F   ADDIU V0, ZERO, 63
9D002BA4  14C20020   BNE A2, V0, 0x9D002C28
9D002BA8  00C02825   OR A1, A2, ZERO
9D002BAC  8E070004   LW A3, 4(S0)
9D002BB0  8FA50028   LW A1, 40(SP)
9D002BB4  7C070004   INS A3, ZERO, 0, 1
9D002BB8  00E54023   SUBU T0, A3, A1
9D002BBC  0F401166   JAL bin_index
9D002BC0  01002025   OR A0, T0, ZERO
9D002BC4  54C20018   BNEL A2, V0, 0x9D002C28
9D002BC8  00C02825   OR A1, A2, ZERO
9D002BCC  8E03000C   LW V1, 12(S0)
9D002BD0  8E040008   LW A0, 8(S0)
9D002BD4  02051021   ADDU V0, S0, A1
9D002BD8  AC43000C   SW V1, 12(V0)
9D002BDC  AC440008   SW A0, 8(V0)
9D002BE0  AC620008   SW V0, 8(V1)
9D002BE4  8C430008   LW V1, 8(V0)
9D002BE8  34A50001   ORI A1, A1, 1
9D002BEC  02073821   ADDU A3, S0, A3
9D002BF0  AC62000C   SW V0, 12(V1)
9D002BF4  AC450000   SW A1, 0(V0)
9D002BF8  AC480004   SW T0, 4(V0)
9D002BFC  ACE80000   SW T0, 0(A3)
9D002C00  1000FFC9   BEQ ZERO, ZERO, 0x9D002B28
9D002C04  AE050004   SW A1, 4(S0)
9D002C24  00C02825   OR A1, A2, ZERO
9D002C28  0F40102A   JAL unbin
9D002C2C  02002025   OR A0, S0, ZERO
9D002C30  1000FFBE   BEQ ZERO, ZERO, 0x9D002B2C
9D002C34  8FA50028   LW A1, 40(SP)
9D003070  10800064   BEQ A0, ZERO, 0x9D003204
9D003074  00000000   NOP
9D003078  8C82FFFC   LW V0, -4(A0)
9D00307C  27BDFFD0   ADDIU SP, SP, -48
9D003080  AFB2001C   SW S2, 28(SP)
9D003084  00409025   OR S2, V0, ZERO
9D003088  AFB00014   SW S0, 20(SP)
9D00308C  7C120004   INS S2, ZERO, 0, 1
9D003090  2490FFF8   ADDIU S0, A0, -8
9D003094  AFB10018   SW S1, 24(SP)
9D003098  02128821   ADDU S1, S0, S2
9D00309C  8E230000   LW V1, 0(S1)
9D0030A0  AFB40024   SW S4, 36(SP)
9D0030A4  AFBF002C   SW RA, 44(SP)
9D0030A8  AFB50028   SW S5, 40(SP)
9D0030AC  AFB30020   SW S3, 32(SP)
9D0030B0  10430003   BEQ V0, V1, 0x9D0030C0
9D0030B4  2414FFFE   ADDIU S4, ZERO, -2
9D0030B8  A0000000   SB ZERO, 0(ZERO)
9D0030C0  8E020000   LW V0, 0(S0)
9D0030CC  30420001   ANDI V0, V0, 1
9D0030D0  1440000E   BNE V0, ZERO, 0x9D00310C
9D0030D4  36420001   ORI V0, S2, 1
9D0030D8  0F40112D   JAL alloc_rev
9D0030DC  02002025   OR A0, S0, ZERO
9D0030E0  54400042   BNEL V0, ZERO, 0x9D0031EC
9D0030E4  8E020000   LW V0, 0(S0)
9D0030E8  0F40114A   JAL alloc_fwd
9D0030EC  02202025   OR A0, S1, ZERO
9D0030F0  5040FFF4   BEQL V0, ZERO, 0x9D0030C4
9D0030F4  8E020000   LW V0, 0(S0)
9D0030F8  8E220004   LW V0, 4(S1)
9D0030FC  02821024   AND V0, S4, V0
9D003100  02429021   ADDU S2, S2, V0
9D003104  1000FFEE   BEQ ZERO, ZERO, 0x9D0030C0
9D003108  02228821   ADDU S1, S1, V0
9D00310C  AE020004   SW V0, 4(S0)
9D003110  02402025   OR A0, S2, ZERO
9D003114  0F401166   JAL bin_index
9D003118  AE220000   SW V0, 0(S1)
9D00311C  00402025   OR A0, V0, ZERO
9D003120  0F401362   JAL lock_bin
9D003124  00409825   OR S3, V0, ZERO
9D003128  8E020000   LW V0, 0(S0)
9D00312C  8E230004   LW V1, 4(S1)
9D003130  00431024   AND V0, V0, V1
9D003134  30420001   ANDI V0, V0, 1
9D003138  1040FFE7   BEQ V0, ZERO, 0x9D0030D8
9D00313C  3C15A000   LUI S5, -24576
9D003140  8EA40218   LW A0, 536(S5)
9D003144  8EA5021C   LW A1, 540(S5)
9D003148  02603025   OR A2, S3, ZERO
9D00314C  0F401344   JAL __lshrdi3
9D003150  26B40218   ADDIU S4, S5, 536
9D003154  30420001   ANDI V0, V0, 1
9D003158  54400010   BNEL V0, ZERO, 0x9D00319C
9D00315C  26730001   ADDIU S3, S3, 1
9D003160  00002825   OR A1, ZERO, ZERO
9D003164  02603025   OR A2, S3, ZERO
9D003168  0F401353   JAL __ashldi3
9D00316C  24040001   ADDIU A0, ZERO, 1
9D003198  26730001   ADDIU S3, S3, 1
9D00319C  001398C0   SLL S3, S3, 3
9D0031A0  02939821   ADDU S3, S4, S3
9D0031A4  2662FFF8   ADDIU V0, S3, -8
9D0031A8  AE120004   SW S2, 4(S0)
9D0031AC  AE320000   SW S2, 0(S1)
9D0031B0  AE020008   SW V0, 8(S0)
9D0031B4  8E620004   LW V0, 4(S3)
9D0031B8  8FBF002C   LW RA, 44(SP)
9D0031BC  8FB50028   LW S5, 40(SP)
9D0031C0  AE02000C   SW V0, 12(S0)
9D0031C4  AE700004   SW S0, 4(S3)
9D0031C8  8E02000C   LW V0, 12(S0)
9D0031CC  8FB40024   LW S4, 36(SP)
9D0031D0  8FB30020   LW S3, 32(SP)
9D0031D4  AC500008   SW S0, 8(V0)
9D0031D8  8FB2001C   LW S2, 28(SP)
9D0031DC  8FB10018   LW S1, 24(SP)
9D0031E0  8FB00014   LW S0, 20(SP)
9D0031E4  03E00008   JR RA
9D0031E8  27BD0030   ADDIU SP, SP, 48
9D0031EC  02821024   AND V0, S4, V0
9D0031F0  02028023   SUBU S0, S0, V0
9D0031F4  8E020004   LW V0, 4(S0)
9D0031F8  02821024   AND V0, S4, V0
9D0031FC  1000FFBA   BEQ ZERO, ZERO, 0x9D0030E8
9D003200  02429021   ADDU S2, S2, V0
9D003204  03E00008   JR RA
9D003208  00000000   NOP
9D0038AC  27BDFFD8   ADDIU SP, SP, -40
9D0038B0  AFBF0024   SW RA, 36(SP)
9D0038B4  AFB40020   SW S4, 32(SP)
9D0038B8  AFB3001C   SW S3, 28(SP)
9D0038BC  AFB20018   SW S2, 24(SP)
9D0038C0  AFB10014   SW S1, 20(SP)
9D0038C4  AFB00010   SW S0, 16(SP)
9D0038C8  1480000D   BNE A0, ZERO, 0x9D003900
9D0038CC  AFA5002C   SW A1, 44(SP)
9D0038D0  0F400A67   JAL malloc
9D0038D4  00A02025   OR A0, A1, ZERO
9D0038D8  00408825   OR S1, V0, ZERO
9D0038DC  8FBF0024   LW RA, 36(SP)
9D0038E0  02201025   OR V0, S1, ZERO
9D0038E4  8FB40020   LW S4, 32(SP)
9D0038E8  8FB3001C   LW S3, 28(SP)
9D0038EC  8FB20018   LW S2, 24(SP)
9D0038F0  8FB10014   LW S1, 20(SP)
9D0038F4  8FB00010   LW S0, 16(SP)
9D0038F8  03E00008   JR RA
9D0038FC  27BD0028   ADDIU SP, SP, 40
9D003900  00808025   OR S0, A0, ZERO
9D003904  0F401223   JAL adjust_size
9D003908  27A4002C   ADDIU A0, SP, 44
9D00390C  0440002B   BLTZ V0, 0x9D0039BC
9D003910  2413FFFE   ADDIU S3, ZERO, -2
9D003914  8E02FFFC   LW V0, -4(S0)
9D003918  2614FFF8   ADDIU S4, S0, -8
9D00391C  00539024   AND S2, V0, S3
9D003920  02928821   ADDU S1, S4, S2
9D003924  8E230000   LW V1, 0(S1)
9D003928  10430003   BEQ V0, V1, 0x9D003938
9D00392C  8FA2002C   LW V0, 44(SP)
9D003930  A0000000   SB ZERO, 0(ZERO)
9D003938  0242102B   SLTU V0, S2, V0
9D00393C  10400009   BEQ V0, ZERO, 0x9D003964
9D003940  02401825   OR V1, S2, ZERO
9D003944  0F40114A   JAL alloc_fwd
9D003948  02202025   OR A0, S1, ZERO
9D00394C  10400005   BEQ V0, ZERO, 0x9D003964
9D003950  02401825   OR V1, S2, ZERO
9D003954  8E220004   LW V0, 4(S1)
9D003958  02629824   AND S3, S3, V0
9D00395C  02721821   ADDU V1, S3, S2
9D003960  02338821   ADDU S1, S1, S3
9D003964  8FA5002C   LW A1, 44(SP)
9D003968  34620001   ORI V0, V1, 1
9D00396C  AE02FFFC   SW V0, -4(S0)
9D003970  0065182B   SLTU V1, V1, A1
9D003974  14600005   BNE V1, ZERO, 0x9D00398C
9D003978  AE220000   SW V0, 0(S1)
9D00397C  0F401239   JAL trim
9D003980  02802025   OR A0, S4, ZERO
9D003984  1000FFD5   BEQ ZERO, ZERO, 0x9D0038DC
9D003988  02008825   OR S1, S0, ZERO
9D00398C  0F400A67   JAL malloc
9D003990  24A4FFF8   ADDIU A0, A1, -8
9D003994  1040FFD1   BEQ V0, ZERO, 0x9D0038DC
9D003998  00408825   OR S1, V0, ZERO
9D00399C  2646FFF8   ADDIU A2, S2, -8
9D0039A0  02002825   OR A1, S0, ZERO
9D0039A4  0F40136F   JAL memcpy
9D0039A8  00402025   OR A0, V0, ZERO
9D0039AC  0F400C1C   JAL free
9D0039B0  02002025   OR A0, S0, ZERO
9D0039B4  1000FFCA   BEQ ZERO, ZERO, 0x9D0038E0
9D0039B8  8FBF0024   LW RA, 36(SP)
9D0039BC  1000FFC7   BEQ ZERO, ZERO, 0x9D0038DC
9D0039C0  00008825   OR S1, ZERO, ZERO
9D0040A8  27BDFFE0   ADDIU SP, SP, -32
9D0040AC  AFB20018   SW S2, 24(SP)
9D0040B0  AFB10014   SW S1, 20(SP)
9D0040B4  8C92000C   LW S2, 12(A0)
9D0040B8  8C910008   LW S1, 8(A0)
9D0040BC  AFB00010   SW S0, 16(SP)
9D0040C0  AFBF001C   SW RA, 28(SP)
9D0040C4  16510013   BNE S2, S1, 0x9D004114
9D0040C8  00808025   OR S0, A0, ZERO
9D0040CC  00A03025   OR A2, A1, ZERO
9D0040D0  24040001   ADDIU A0, ZERO, 1
9D0040D4  0F401353   JAL __ashldi3
9D0040D8  00002825   OR A1, ZERO, ZERO
9D0040DC  00031827   NOR V1, ZERO, V1
9D004114  8E020004   LW V0, 4(S0)
9D004118  AE510008   SW S1, 8(S2)
9D00411C  AE32000C   SW S2, 12(S1)
9D004120  34430001   ORI V1, V0, 1
9D004124  7C020004   INS V0, ZERO, 0, 1
9D004128  AE030004   SW V1, 4(S0)
9D00412C  02028021   ADDU S0, S0, V0
9D004130  8E020000   LW V0, 0(S0)
9D004134  8FBF001C   LW RA, 28(SP)
9D004138  8FB20018   LW S2, 24(SP)
9D00413C  34420001   ORI V0, V0, 1
9D004140  AE020000   SW V0, 0(S0)
9D004144  8FB10014   LW S1, 20(SP)
9D004148  8FB00010   LW S0, 16(SP)
9D00414C  03E00008   JR RA
9D004150  27BD0020   ADDIU SP, SP, 32
9D0044B4  8C860000   LW A2, 0(A0)
9D0044B8  30C20001   ANDI V0, A2, 1
9D0044BC  10400008   BEQ V0, ZERO, 0x9D0044E0
9D0044C0  00803825   OR A3, A0, ZERO
9D0044C4  03E00008   JR RA
9D0044C8  00001025   OR V0, ZERO, ZERO
9D0044CC  30C20001   ANDI V0, A2, 1
9D0044D0  10400005   BEQ V0, ZERO, 0x9D0044E8
9D0044D4  00001025   OR V0, ZERO, ZERO
9D0044D8  10000011   BEQ ZERO, ZERO, 0x9D004520
9D0044DC  8FBF0014   LW RA, 20(SP)
9D0044E0  27BDFFE8   ADDIU SP, SP, -24
9D0044E4  AFBF0014   SW RA, 20(SP)
9D0044E8  0F401166   JAL bin_index
9D0044EC  00C02025   OR A0, A2, ZERO
9D0044F0  00402025   OR A0, V0, ZERO
9D0044F4  0F401362   JAL lock_bin
9D0044F8  00404025   OR T0, V0, ZERO
9D0044FC  8CE40000   LW A0, 0(A3)
9D004500  5486FFF2   BNEL A0, A2, 0x9D0044CC
9D004504  8CE60000   LW A2, 0(A3)
9D004508  7C040004   INS A0, ZERO, 0, 1
9D00450C  01002825   OR A1, T0, ZERO
9D004510  0F40102A   JAL unbin
9D004514  00E42023   SUBU A0, A3, A0
9D004518  24020001   ADDIU V0, ZERO, 1
9D00451C  8FBF0014   LW RA, 20(SP)
9D004520  03E00008   JR RA
9D004524  27BD0018   ADDIU SP, SP, 24
9D004528  8C860004   LW A2, 4(A0)
9D00452C  30C20001   ANDI V0, A2, 1
9D004530  10400008   BEQ V0, ZERO, 0x9D004554
9D004534  00803825   OR A3, A0, ZERO
9D004538  03E00008   JR RA
9D00453C  00001025   OR V0, ZERO, ZERO
9D004540  30C20001   ANDI V0, A2, 1
9D004544  10400005   BEQ V0, ZERO, 0x9D00455C
9D004548  00001025   OR V0, ZERO, ZERO
9D00454C  10000010   BEQ ZERO, ZERO, 0x9D004590
9D004550  8FBF0014   LW RA, 20(SP)
9D004554  27BDFFE8   ADDIU SP, SP, -24
9D004558  AFBF0014   SW RA, 20(SP)
9D00455C  0F401166   JAL bin_index
9D004560  00C02025   OR A0, A2, ZERO
9D004564  00402025   OR A0, V0, ZERO
9D004568  0F401362   JAL lock_bin
9D00456C  00404025   OR T0, V0, ZERO
9D004570  8CE20004   LW V0, 4(A3)
9D004574  5446FFF2   BNEL V0, A2, 0x9D004540
9D004578  8CE60004   LW A2, 4(A3)
9D00457C  01002825   OR A1, T0, ZERO
9D004580  0F40102A   JAL unbin
9D004584  00E02025   OR A0, A3, ZERO
9D004588  24020001   ADDIU V0, ZERO, 1
9D00458C  8FBF0014   LW RA, 20(SP)
9D004590  03E00008   JR RA
9D004594  27BD0018   ADDIU SP, SP, 24
9D004598  00042102   SRL A0, A0, 4
9D00459C  2484FFFF   ADDIU A0, A0, -1
9D0045A0  2C820021   SLTIU V0, A0, 33
9D0045A4  50400003   BEQL V0, ZERO, 0x9D0045B4
9D0045A8  2C820200   SLTIU V0, A0, 512
9D0045AC  03E00008   JR RA
9D0045B0  00801025   OR V0, A0, ZERO
9D0045B4  10400007   BEQ V0, ZERO, 0x9D0045D4
9D0045B8  2C831C01   SLTIU V1, A0, 7169
9D0045BC  3C029D00   LUI V0, -25344
9D0045C0  2442473C   ADDIU V0, V0, 18236
9D0045C4  000420C2   SRL A0, A0, 3
9D0045C8  00822021   ADDU A0, A0, V0
9D0045CC  03E00008   JR RA
9D0045D0  9082FFFC   LBU V0, -4(A0)
9D0045D4  10600007   BEQ V1, ZERO, 0x9D0045F4
9D0045D8  2402003F   ADDIU V0, ZERO, 63
9D0045DC  3C029D00   LUI V0, -25344
9D0045E0  2442473C   ADDIU V0, V0, 18236
9D0045E4  000421C2   SRL A0, A0, 7
9D0045E8  00822021   ADDU A0, A0, V0
9D0045EC  9082FFFC   LBU V0, -4(A0)
9D0045F0  24420010   ADDIU V0, V0, 16
9D0045F4  03E00008   JR RA
9D0045F8  00000000   NOP
9D00488C  3C03A000   LUI V1, -24576
9D004890  8C6604C4   LW A2, 1220(V1)
9D004894  8C820000   LW V0, 0(A0)
9D004898  3C037FFF   LUI V1, 32767
9D00489C  3463FFEF   ORI V1, V1, -17
9D0048A0  2445FFFF   ADDIU A1, V0, -1
9D0048A4  00661823   SUBU V1, V1, A2
9D0048A8  0065182B   SLTU V1, V1, A1
9D0048AC  5060000B   BEQL V1, ZERO, 0x9D0048DC
9D0048B0  24420017   ADDIU V0, V0, 23
9D0048B4  50400006   BEQL V0, ZERO, 0x9D0048D0
9D0048B8  24020010   ADDIU V0, ZERO, 16
9D0048BC  3C02A000   LUI V0, -24576
9D0048C0  2403000C   ADDIU V1, ZERO, 12
9D0048C4  AC430508   SW V1, 1288(V0)
9D0048C8  03E00008   JR RA
9D0048CC  2402FFFF   ADDIU V0, ZERO, -1
9D0048D0  AC820000   SW V0, 0(A0)
9D0048D4  03E00008   JR RA
9D0048D8  00001025   OR V0, ZERO, ZERO
9D0048DC  1000FFFC   BEQ ZERO, ZERO, 0x9D0048D0
9D0048E0  7C021804   INS V0, ZERO, 0, 4
9D0048E4  8C820004   LW V0, 4(A0)
9D0048E8  7C020004   INS V0, ZERO, 0, 1
9D0048EC  00451823   SUBU V1, V0, A1
9D0048F0  2C660011   SLTIU A2, V1, 17
9D0048F4  14C0000F   BNE A2, ZERO, 0x9D004934
9D0048F8  00853021   ADDU A2, A0, A1
9D0048FC  27BDFFE8   ADDIU SP, SP, -24
9D004900  34A50001   ORI A1, A1, 1
9D004904  34630001   ORI V1, V1, 1
9D004908  00821021   ADDU V0, A0, V0
9D00490C  AFBF0014   SW RA, 20(SP)
9D004910  ACC50000   SW A1, 0(A2)
9D004914  ACC30004   SW V1, 4(A2)
9D004918  AC430000   SW V1, 0(V0)
9D00491C  AC850004   SW A1, 4(A0)
9D004920  0F400C1C   JAL free
9D004924  24C40008   ADDIU A0, A2, 8
9D004928  8FBF0014   LW RA, 20(SP)
9D00492C  03E00008   JR RA
9D004930  27BD0018   ADDIU SP, SP, 24
9D004934  03E00008   JR RA
9D004938  00000000   NOP
9D004990  27BDFFE8   ADDIU SP, SP, -24
9D004994  AFB00010   SW S0, 16(SP)
9D004998  AFBF0014   SW RA, 20(SP)
9D00499C  0F400A67   JAL malloc
9D0049A0  00808025   OR S0, A0, ZERO
9D0049A4  10400006   BEQ V0, ZERO, 0x9D0049C0
9D0049A8  26100003   ADDIU S0, S0, 3
9D0049AC  7C100804   INS S0, ZERO, 0, 2
9D0049B0  00508021   ADDU S0, V0, S0
9D0049B4  00401825   OR V1, V0, ZERO
9D0049B8  54700005   BNEL V1, S0, 0x9D0049D0
9D0049BC  8C640000   LW A0, 0(V1)
9D0049C0  8FBF0014   LW RA, 20(SP)
9D0049C4  8FB00010   LW S0, 16(SP)
9D0049C8  03E00008   JR RA
9D0049CC  27BD0018   ADDIU SP, SP, 24
9D0049D0  54800001   BNEL A0, ZERO, 0x9D0049D8
9D0049D4  AC600000   SW ZERO, 0(V1)
9D0049D8  1000FFF7   BEQ ZERO, ZERO, 0x9D0049B8
9D0049DC  24630004   ADDIU V1, V1, 4
9D004D88  24840001   ADDIU A0, A0, 1
9D004D8C  000410C0   SLL V0, A0, 3
9D004D90  3C04A000   LUI A0, -24576
9D004D94  24840218   ADDIU A0, A0, 536
9D004D98  00441821   ADDU V1, V0, A0
9D004D9C  8C650000   LW A1, 0(V1)
9D004DA0  14A00004   BNE A1, ZERO, 0x9D004DB4
9D004DA4  2442FFF8   ADDIU V0, V0, -8
9D004DA8  00822021   ADDU A0, A0, V0
9D004DAC  AC640004   SW A0, 4(V1)
9D004DB0  AC640000   SW A0, 0(V1)
9D004DB4  03E00008   JR RA
9D004DB8  00000000   NOP
---  /data01/build/bamboo/xml-data/build-dir/M32DEV-GMB34-JOB1/src/xc32-musl-stdlib/musl/musl-1.1.18/src/ctype/toupper.c
-----*  Optimizer-Generated Procedural Abstractions  *----------------------------------------------
9D004F60  2483FF9F   ADDIU V1, A0, -97
9D004F64  2C63001A   SLTIU V1, V1, 26
9D004F68  10600002   BEQ V1, ZERO, 0x9D004F74
9D004F6C  00801025   OR V0, A0, ZERO
9D004F70  3082005F   ANDI V0, A0, 95
9D004F74  03E00008   JR RA
9D004F78  00000000   NOP
9D004F7C  27BDFFE8   ADDIU SP, SP, -24
9D004F80  AFBF0014   SW RA, 20(SP)
9D004F84  0F4013D8   JAL toupper
9D004F88  00000000   NOP
9D004F8C  8FBF0014   LW RA, 20(SP)
9D004F90  03E00008   JR RA
9D004F94  27BD0018   ADDIU SP, SP, 24
---  /data01/build/bamboo/xml-data/build-dir/M32DEV-GMB34-JOB1/src/xc32-musl-stdlib/musl/musl-1.1.18/src/ctype/tolower.c
-----*  Optimizer-Generated Procedural Abstractions  *----------------------------------------------
9D004F28  2483FFBF   ADDIU V1, A0, -65
9D004F2C  2C63001A   SLTIU V1, V1, 26
9D004F30  10600002   BEQ V1, ZERO, 0x9D004F3C
9D004F34  00801025   OR V0, A0, ZERO
9D004F38  34820020   ORI V0, A0, 32
9D004F3C  03E00008   JR RA
9D004F40  00000000   NOP
9D004F44  27BDFFE8   ADDIU SP, SP, -24
9D004F4C  0F4013CA   JAL tolower
9D004F50  00000000   NOP
9D004F54  8FBF0014   LW RA, 20(SP)
9D004F58  03E00008   JR RA
9D004F5C  27BD0018   ADDIU SP, SP, 24
---  /data01/build/bamboo/xml-data/build-dir/M32DEV-GMB34-JOB1/src/xc32-musl-stdlib/musl/musl-1.1.18/include/ctype.h
-----*  Optimizer-Generated Procedural Abstractions  *----------------------------------------------
9D004434  24050020   ADDIU A1, ZERO, 32
9D004438  80820000   LB V0, 0(A0)
9D00443C  1045000E   BEQ V0, A1, 0x9D004478
9D004440  2443FFF7   ADDIU V1, V0, -9
9D004444  2C630005   SLTIU V1, V1, 5
9D004448  5460FFFB   BNEL V1, ZERO, 0x9D004438
9D00444C  24840001   ADDIU A0, A0, 1
9D004450  2403002B   ADDIU V1, ZERO, 43
---  /data01/build/bamboo/xml-data/build-dir/M32DEV-GMB34-JOB1/src/xc32-musl-stdlib/musl/musl-1.1.18/arch/mchp/atomic.h
-----*  Optimizer-Generated Procedural Abstractions  *----------------------------------------------
9D002A38  3C0C076B   LUI T4, 1899
9D002B3C  54A00032   BNEL A1, ZERO, first_set
9D002B44  00032023   SUBU A0, ZERO, V1
9D002B48  00832024   AND A0, A0, V1
9D002B4C  3582E629   ORI V0, T4, -6615
9D002B50  70822002   MUL A0, A0, V0
9D002B54  000426C2   SRL A0, A0, 27
9D002B58  01042021   ADDU A0, T0, A0
9D002B5C  80860000   LB A2, 0(A0)
9D002B60  24C60020   ADDIU A2, A2, 32
9D002B64  0F401362   JAL lock_bin
9D002C08  00852024   AND A0, A0, A1
9D002C0C  3582E629   ORI V0, T4, -6615
9D002C10  70822002   MUL A0, A0, V0
9D002C14  000426C2   SRL A0, A0, 27
9D002C18  01042021   ADDU A0, T0, A0
9D002C1C  1000FFD1   BEQ ZERO, ZERO, 0x9D002B64
9D002C20  80860000   LB A2, 0(A0)
9D0030B8  A0000000   SB ZERO, 0(ZERO)
9D0030C0  8E020000   LW V0, 0(S0)
9D0030C4  8E230004   LW V1, 4(S1)
9D0030C8  00431024   AND V0, V0, V1
9D003170  10400004   BEQ V0, ZERO, 0x9D003184
9D003174  00602825   OR A1, V1, ZERO
9D003178  8EA40218   LW A0, 536(S5)
9D00317C  00822025   OR A0, A0, V0
9D003180  AEA40218   SW A0, 536(S5)
9D003184  50A00005   BEQL A1, ZERO, 0x9D00319C
9D003188  26730001   ADDIU S3, S3, 1
9D00318C  8E820004   LW V0, 4(S4)
9D003190  00431025   OR V0, V0, V1
9D003194  AE820004   SW V0, 4(S4)
9D003198  26730001   ADDIU S3, S3, 1
9D003930  A0000000   SB ZERO, 0(ZERO)
9D0040E0  10400005   BEQ V0, ZERO, 0x9D0040F8
9D0040E4  00022827   NOR A1, ZERO, V0
9D0040E8  3C04A000   LUI A0, -24576
9D0040F0  00451024   AND V0, V0, A1
9D0040F4  AC820218   SW V0, 536(A0)
9D0040F8  2402FFFF   ADDIU V0, ZERO, -1
9D0040FC  10620005   BEQ V1, V0, 0x9D004114
9D004100  3C02A000   LUI V0, -24576
9D004104  24420218   ADDIU V0, V0, 536
9D00410C  00641824   AND V1, V1, A0
9D004110  AC430004   SW V1, 4(V0)
9D004114  8E020004   LW V0, 4(S0)
---  /data01/build/bamboo/xml-data/build-dir/M32DEV-GMB34-JOB1/src/gcc-8-merge/gcc/libgcc/libgcc2.c  ----
-----*  Optimizer-Generated Procedural Abstractions  *----------------------------------------------
9D0021B8  00C04825   OR T1, A2, ZERO
9D0021BC  00801025   OR V0, A0, ZERO
9D0021C0  14E00099   BNE A3, ZERO, 0x9D002428
9D0021C4  00A01825   OR V1, A1, ZERO
9D0021C8  00A6302B   SLTU A2, A1, A2
9D0021CC  10C00034   BEQ A2, ZERO, 0x9D0022A0
9D0021D0  712A5020   CLZ T2, T1
9D0021D4  51400008   BEQL T2, ZERO, 0x9D0021F8
9D0021D8  00092402   SRL A0, T1, 16
9D0021DC  01451804   SLLV V1, A1, T2
9D0021E0  000A2823   SUBU A1, ZERO, T2
9D0021E4  00A42806   SRLV A1, A0, A1
9D0021E8  01494804   SLLV T1, T1, T2
9D0021EC  00A31825   OR V1, A1, V1
9D0021F0  01441004   SLLV V0, A0, T2
9D0021F4  00092402   SRL A0, T1, 16
9D0021F8  0064001B   DIVU V1, A0
9D0021FC  008001F4   TEQ A0, ZERO
9D002200  3127FFFF   ANDI A3, T1, -1
9D002204  00001812   MFLO V1
9D002208  00002810   MFHI A1
9D00220C  70673002   MUL A2, V1, A3
9D002210  00051C00   SLL V1, A1, 16
9D002214  00022C02   SRL A1, V0, 16
9D002218  00651825   OR V1, V1, A1
9D00221C  0066282B   SLTU A1, V1, A2
9D002220  50A00009   BEQL A1, ZERO, 0x9D002248
9D002224  00661823   SUBU V1, V1, A2
9D002228  00691821   ADDU V1, V1, T1
9D00222C  0069282B   SLTU A1, V1, T1
9D002230  54A00005   BNEL A1, ZERO, 0x9D002248
9D002234  00661823   SUBU V1, V1, A2
9D002238  0066282B   SLTU A1, V1, A2
9D00223C  54A00001   BNEL A1, ZERO, 0x9D002244
9D002240  00691821   ADDU V1, V1, T1
9D002244  00661823   SUBU V1, V1, A2
9D002248  0064001B   DIVU V1, A0
9D00224C  008001F4   TEQ A0, ZERO
9D002250  3042FFFF   ANDI V0, V0, -1
9D002254  00001812   MFLO V1
9D002258  00003010   MFHI A2
9D00225C  70672002   MUL A0, V1, A3
9D002260  00061C00   SLL V1, A2, 16
9D002264  00621025   OR V0, V1, V0
9D002268  0044182B   SLTU V1, V0, A0
9D00226C  50600009   BEQL V1, ZERO, 0x9D002294
9D002270  00441023   SUBU V0, V0, A0
9D002274  00491021   ADDU V0, V0, T1
9D002278  0049182B   SLTU V1, V0, T1
9D00227C  54600005   BNEL V1, ZERO, 0x9D002294
9D002280  00441023   SUBU V0, V0, A0
9D002284  0044182B   SLTU V1, V0, A0
9D002288  54600001   BNEL V1, ZERO, 0x9D002290
9D00228C  00491021   ADDU V0, V0, T1
9D002290  00441023   SUBU V0, V0, A0
9D002294  01421006   SRLV V0, V0, T2
9D002298  03E00008   JR RA
9D00229C  00001825   OR V1, ZERO, ZERO
9D0022A0  15200005   BNE T1, ZERO, 0x9D0022B8
9D0022A4  24030001   ADDIU V1, ZERO, 1
9D0022A8  0069001B   DIVU V1, T1
9D0022AC  012001F4   TEQ T1, ZERO
9D0022B0  00004812   MFLO T1
9D0022B4  712A5020   CLZ T2, T1
9D0022B8  1540002B   BNE T2, ZERO, 0x9D002368
9D0022BC  24070020   ADDIU A3, ZERO, 32
9D0022C0  00A92823   SUBU A1, A1, T1
9D0022C4  00092402   SRL A0, T1, 16
9D0022C8  00A4001B   DIVU A1, A0
9D0022CC  008001F4   TEQ A0, ZERO
9D0022D0  3127FFFF   ANDI A3, T1, -1
9D0022D4  00002812   MFLO A1
9D0022D8  00001810   MFHI V1
9D0022DC  70A73002   MUL A2, A1, A3
9D0022E0  00032C00   SLL A1, V1, 16
9D0022E4  00021C02   SRL V1, V0, 16
9D0022E8  00A32825   OR A1, A1, V1
9D0022EC  00A6182B   SLTU V1, A1, A2
9D0022F0  50600009   BEQL V1, ZERO, 0x9D002318
9D0022F4  00A63023   SUBU A2, A1, A2
9D0022F8  00A92821   ADDU A1, A1, T1
9D0022FC  00A9182B   SLTU V1, A1, T1
9D002300  54600005   BNEL V1, ZERO, 0x9D002318
9D002304  00A63023   SUBU A2, A1, A2
9D002308  00A6182B   SLTU V1, A1, A2
9D00230C  54600001   BNEL V1, ZERO, 0x9D002314
9D002310  00A92821   ADDU A1, A1, T1
9D002314  00A63023   SUBU A2, A1, A2
9D002318  00C4001B   DIVU A2, A0
9D00231C  008001F4   TEQ A0, ZERO
9D002320  3042FFFF   ANDI V0, V0, -1
9D002324  00003012   MFLO A2
9D002328  00002810   MFHI A1
9D00232C  70C71802   MUL V1, A2, A3
9D002330  00053400   SLL A2, A1, 16
9D002334  00C21025   OR V0, A2, V0
9D002338  0043202B   SLTU A0, V0, V1
9D00233C  5080FFD5   BEQL A0, ZERO, 0x9D002294
9D002340  00431023   SUBU V0, V0, V1
9D002344  00491021   ADDU V0, V0, T1
9D002348  0049202B   SLTU A0, V0, T1
9D00234C  5480FFD1   BNEL A0, ZERO, 0x9D002294
9D002350  00431023   SUBU V0, V0, V1
9D002354  0043202B   SLTU A0, V0, V1
9D002358  54800001   BNEL A0, ZERO, 0x9D002360
9D00235C  00491021   ADDU V0, V0, T1
9D002360  1000FFCC   BEQ ZERO, ZERO, 0x9D002294
9D002364  00431023   SUBU V0, V0, V1
9D002368  00EA3823   SUBU A3, A3, T2
9D00236C  01494804   SLLV T1, T1, T2
9D002370  00E41806   SRLV V1, A0, A3
9D002374  00093402   SRL A2, T1, 16
9D002378  00E53806   SRLV A3, A1, A3
9D00237C  00E6001B   DIVU A3, A2
9D002380  00C001F4   TEQ A2, ZERO
9D002384  01451004   SLLV V0, A1, T2
9D002388  312BFFFF   ANDI T3, T1, -1
9D00238C  00621825   OR V1, V1, V0
9D002390  01441004   SLLV V0, A0, T2
9D002394  00032C02   SRL A1, V1, 16
9D002398  00003812   MFLO A3
9D00239C  00002010   MFHI A0
9D0023A0  70EB4002   MUL T0, A3, T3
9D0023A4  00043C00   SLL A3, A0, 16
9D0023A8  00E53825   OR A3, A3, A1
9D0023AC  00E8202B   SLTU A0, A3, T0
9D0023B0  50800009   BEQL A0, ZERO, 0x9D0023D8
9D0023B4  00E83823   SUBU A3, A3, T0
9D0023B8  00E93821   ADDU A3, A3, T1
9D0023BC  00E9202B   SLTU A0, A3, T1
9D0023C0  54800005   BNEL A0, ZERO, 0x9D0023D8
9D0023C4  00E83823   SUBU A3, A3, T0
9D0023C8  00E8202B   SLTU A0, A3, T0
9D0023CC  54800001   BNEL A0, ZERO, 0x9D0023D4
9D0023D0  00E93821   ADDU A3, A3, T1
9D0023D4  00E83823   SUBU A3, A3, T0
9D0023D8  00E6001B   DIVU A3, A2
9D0023DC  00C001F4   TEQ A2, ZERO
9D0023E0  3065FFFF   ANDI A1, V1, -1
9D0023E4  00003012   MFLO A2
9D0023E8  00003810   MFHI A3
9D0023EC  00073C00   SLL A3, A3, 16
9D0023F0  00E52825   OR A1, A3, A1
9D0023F4  70CB3002   MUL A2, A2, T3
9D0023F8  00A6182B   SLTU V1, A1, A2
9D0023FC  5060FFB1   BEQL V1, ZERO, 0x9D0022C4
9D002400  00A62823   SUBU A1, A1, A2
9D002404  00A92821   ADDU A1, A1, T1
9D002408  00A9182B   SLTU V1, A1, T1
9D00240C  5460FFAD   BNEL V1, ZERO, 0x9D0022C4
9D002410  00A62823   SUBU A1, A1, A2
9D002414  00A6182B   SLTU V1, A1, A2
9D002418  54600001   BNEL V1, ZERO, 0x9D002420
9D00241C  00A92821   ADDU A1, A1, T1
9D002420  1000FFA8   BEQ ZERO, ZERO, 0x9D0022C4
9D002424  00A62823   SUBU A1, A1, A2
9D002428  00A7402B   SLTU T0, A1, A3
9D00242C  1500005E   BNE T0, ZERO, 0x9D0025A8
9D002430  70EE7020   CLZ T6, A3
9D002434  15C0000C   BNE T6, ZERO, 0x9D002468
9D002438  240B0020   ADDIU T3, ZERO, 32
9D00243C  00E5402B   SLTU T0, A3, A1
9D002440  55000005   BNEL T0, ZERO, 0x9D002458
9D002444  00861023   SUBU V0, A0, A2
9D002448  0086402B   SLTU T0, A0, A2
9D00244C  15000056   BNE T0, ZERO, 0x9D0025A8
9D002450  00000000   NOP
9D002454  00861023   SUBU V0, A0, A2
9D002458  00A72823   SUBU A1, A1, A3
9D00245C  0082182B   SLTU V1, A0, V0
9D002460  03E00008   JR RA
9D002464  00A31823   SUBU V1, A1, V1
9D002468  016E5823   SUBU T3, T3, T6
9D00246C  01666006   SRLV T4, A2, T3
9D002470  01C73804   SLLV A3, A3, T6
9D002474  01873825   OR A3, T4, A3
9D002478  01C51804   SLLV V1, A1, T6
9D00247C  00074C02   SRL T1, A3, 16
9D002480  01652806   SRLV A1, A1, T3
9D002484  00A9001B   DIVU A1, T1
9D002488  012001F4   TEQ T1, ZERO
9D00248C  01C61004   SLLV V0, A2, T6
9D002490  30E8FFFF   ANDI T0, A3, -1
9D002494  01643006   SRLV A2, A0, T3
9D002498  00C33025   OR A2, A2, V1
9D00249C  00066402   SRL T4, A2, 16
9D0024A0  01C42004   SLLV A0, A0, T6
9D0024A4  00002812   MFLO A1
9D0024A8  00005010   MFHI T2
9D0024AC  000A5400   SLL T2, T2, 16
9D0024B0  014C5025   OR T2, T2, T4
9D0024B4  71051802   MUL V1, T0, A1
9D0024B8  0143602B   SLTU T4, T2, V1
9D0024BC  1180000A   BEQ T4, ZERO, 0x9D0024E8
9D0024C0  00A06825   OR T5, A1, ZERO
9D0024C4  01475021   ADDU T2, T2, A3
9D0024C8  0147602B   SLTU T4, T2, A3
9D0024CC  15800006   BNE T4, ZERO, 0x9D0024E8
9D0024D0  24ADFFFF   ADDIU T5, A1, -1
9D0024D4  0143602B   SLTU T4, T2, V1
9D0024D8  51800004   BEQL T4, ZERO, 0x9D0024EC
9D0024DC  01435023   SUBU T2, T2, V1
9D0024E0  24ADFFFE   ADDIU T5, A1, -2
9D0024E4  01475021   ADDU T2, T2, A3
9D0024E8  01435023   SUBU T2, T2, V1
9D0024EC  0149001B   DIVU T2, T1
9D0024F0  012001F4   TEQ T1, ZERO
9D0024F4  00004812   MFLO T1
9D0024F8  00005010   MFHI T2
9D0024FC  000A5400   SLL T2, T2, 16
9D002500  71091802   MUL V1, T0, T1
9D002504  30C8FFFF   ANDI T0, A2, -1
9D002508  01484025   OR T0, T2, T0
9D00250C  0103302B   SLTU A2, T0, V1
9D002510  10C0000A   BEQ A2, ZERO, 0x9D00253C
9D002514  01202825   OR A1, T1, ZERO
9D002518  01074021   ADDU T0, T0, A3
9D00251C  0107302B   SLTU A2, T0, A3
9D002520  14C00006   BNE A2, ZERO, 0x9D00253C
9D002524  2525FFFF   ADDIU A1, T1, -1
9D002528  0103302B   SLTU A2, T0, V1
9D00252C  10C00004   BEQ A2, ZERO, 0x9D002540
9D002530  000D6400   SLL T4, T5, 16
9D002534  2525FFFE   ADDIU A1, T1, -2
9D002538  01074021   ADDU T0, T0, A3
9D00253C  000D6400   SLL T4, T5, 16
9D002540  01856025   OR T4, T4, A1
9D002544  01820019   MULTU 0, T4, V0
9D002548  01034023   SUBU T0, T0, V1
9D00254C  00006810   MFHI T5
9D002550  010D282B   SLTU A1, T0, T5
9D002554  01A01825   OR V1, T5, ZERO
9D002558  00006012   MFLO T4
9D00255C  14A00006   BNE A1, ZERO, 0x9D002578
9D002560  00003012   MFLO A2
9D002564  150D0009   BNE T0, T5, 0x9D00258C
9D002568  00863023   SUBU A2, A0, A2
9D00256C  008C282B   SLTU A1, A0, T4
9D002570  50A00007   BEQL A1, ZERO, 0x9D002590
9D002574  01034023   SUBU T0, T0, V1
9D002578  01823023   SUBU A2, T4, V0
9D00257C  01A73823   SUBU A3, T5, A3
9D002580  0186602B   SLTU T4, T4, A2
9D002584  00EC1823   SUBU V1, A3, T4
9D002588  00863023   SUBU A2, A0, A2
9D00258C  01034023   SUBU T0, T0, V1
9D002590  0086182B   SLTU V1, A0, A2
9D002594  01031823   SUBU V1, T0, V1
9D002598  01631004   SLLV V0, V1, T3
9D00259C  01C63006   SRLV A2, A2, T6
9D0025A0  00461025   OR V0, V0, A2
9D0025A4  01C31806   SRLV V1, V1, T6
9D0025A8  03E00008   JR RA
9D0025AC  00000000   NOP
9D0025B0  00C04025   OR T0, A2, ZERO
9D0025B4  00E01825   OR V1, A3, ZERO
9D0025B8  00805025   OR T2, A0, ZERO
9D0025BC  14E000A3   BNE A3, ZERO, 0x9D00284C
9D0025C0  00A01025   OR V0, A1, ZERO
9D0025C4  00A6302B   SLTU A2, A1, A2
9D0025C8  10C00034   BEQ A2, ZERO, 0x9D00269C
9D0025CC  00000000   NOP
9D0025D0  71052820   CLZ A1, T0
9D0025D4  50A00008   BEQL A1, ZERO, 0x9D0025F8
9D0025D8  00082C02   SRL A1, T0, 16
9D0025DC  00052023   SUBU A0, ZERO, A1
9D0025E0  008A2006   SRLV A0, T2, A0
9D0025E4  00A21004   SLLV V0, V0, A1
9D0025E8  00A84004   SLLV T0, T0, A1
9D0025EC  00821025   OR V0, A0, V0
9D0025F0  00AA5004   SLLV T2, T2, A1
9D0025F4  00082C02   SRL A1, T0, 16
9D0025F8  0045001B   DIVU V0, A1
9D0025FC  00A001F4   TEQ A1, ZERO
9D002600  3107FFFF   ANDI A3, T0, -1
9D002604  000A2402   SRL A0, T2, 16
9D002608  00003012   MFLO A2
9D00260C  00001010   MFHI V0
9D002610  00021400   SLL V0, V0, 16
9D002614  00442025   OR A0, V0, A0
9D002618  70E64802   MUL T1, A3, A2
9D00261C  0089582B   SLTU T3, A0, T1
9D002620  1160000A   BEQ T3, ZERO, 0x9D00264C
9D002624  00C01025   OR V0, A2, ZERO
9D002628  00882021   ADDU A0, A0, T0
9D00262C  0088582B   SLTU T3, A0, T0
9D002630  15600006   BNE T3, ZERO, 0x9D00264C
9D002634  24C2FFFF   ADDIU V0, A2, -1
9D002638  0089582B   SLTU T3, A0, T1
9D00263C  51600004   BEQL T3, ZERO, 0x9D002650
9D002640  00892023   SUBU A0, A0, T1
9D002644  24C2FFFE   ADDIU V0, A2, -2
9D002648  00882021   ADDU A0, A0, T0
9D00264C  00892023   SUBU A0, A0, T1
9D002650  0085001B   DIVU A0, A1
9D002654  00A001F4   TEQ A1, ZERO
9D002658  314AFFFF   ANDI T2, T2, -1
9D00265C  00002012   MFLO A0
9D002660  00002810   MFHI A1
9D002664  00052C00   SLL A1, A1, 16
9D002668  00AA5025   OR T2, A1, T2
9D00266C  70E43802   MUL A3, A3, A0
9D002670  0147282B   SLTU A1, T2, A3
9D002674  10A00006   BEQ A1, ZERO, 0x9D002690
9D002678  00803025   OR A2, A0, ZERO
9D00267C  010A5021   ADDU T2, T0, T2
9D002680  0148402B   SLTU T0, T2, T0
9D002684  2486FFFF   ADDIU A2, A0, -1
9D002688  11000036   BEQ T0, ZERO, 0x9D002764
9D00268C  0147502B   SLTU T2, T2, A3
9D002690  00021400   SLL V0, V0, 16
9D002694  03E00008   JR RA
9D002698  00461025   OR V0, V0, A2
9D00269C  15000006   BNE T0, ZERO, 0x9D0026B8
9D0026A0  71021020   CLZ V0, T0
9D0026A4  24020001   ADDIU V0, ZERO, 1
9D0026A8  0048001B   DIVU V0, T0
9D0026AC  010001F4   TEQ T0, ZERO
9D0026B0  00004012   MFLO T0
9D0026B4  71021020   CLZ V0, T0
9D0026B8  1440002E   BNE V0, ZERO, 0x9D002774
9D0026BC  24090020   ADDIU T1, ZERO, 32
9D0026C0  00A82823   SUBU A1, A1, T0
9D0026C4  24030001   ADDIU V1, ZERO, 1
9D0026C8  00083402   SRL A2, T0, 16
9D0026CC  00A6001B   DIVU A1, A2
9D0026D0  00C001F4   TEQ A2, ZERO
9D0026D4  3107FFFF   ANDI A3, T0, -1
9D0026D8  000A2402   SRL A0, T2, 16
9D0026DC  00002812   MFLO A1
9D0026E0  00001010   MFHI V0
9D0026E4  00021400   SLL V0, V0, 16
9D0026E8  00442025   OR A0, V0, A0
9D0026EC  70E54802   MUL T1, A3, A1
9D0026F0  0089582B   SLTU T3, A0, T1
9D0026F4  1160000A   BEQ T3, ZERO, 0x9D002720
9D0026F8  00A01025   OR V0, A1, ZERO
9D0026FC  00882021   ADDU A0, A0, T0
9D002700  0088582B   SLTU T3, A0, T0
9D002704  15600006   BNE T3, ZERO, 0x9D002720
9D002708  24A2FFFF   ADDIU V0, A1, -1
9D00270C  0089582B   SLTU T3, A0, T1
9D002710  51600004   BEQL T3, ZERO, 0x9D002724
9D002714  00892023   SUBU A0, A0, T1
9D002718  24A2FFFE   ADDIU V0, A1, -2
9D00271C  00882021   ADDU A0, A0, T0
9D002720  00892023   SUBU A0, A0, T1
9D002724  0086001B   DIVU A0, A2
9D002728  00C001F4   TEQ A2, ZERO
9D00272C  314AFFFF   ANDI T2, T2, -1
9D002730  00002012   MFLO A0
9D002734  00003010   MFHI A2
9D002738  00063400   SLL A2, A2, 16
9D00273C  00CA5025   OR T2, A2, T2
9D002740  70E42802   MUL A1, A3, A0
9D002744  0145382B   SLTU A3, T2, A1
9D002748  10E0FFD1   BEQ A3, ZERO, 0x9D002690
9D00274C  00803025   OR A2, A0, ZERO
9D002750  010A5021   ADDU T2, T0, T2
9D002754  0148402B   SLTU T0, T2, T0
9D002758  1500FFCD   BNE T0, ZERO, 0x9D002690
9D00275C  2486FFFF   ADDIU A2, A0, -1
9D002760  0145502B   SLTU T2, T2, A1
9D002764  5540FFCA   BNEL T2, ZERO, 0x9D002690
9D002768  2486FFFE   ADDIU A2, A0, -2
9D00276C  1000FFC9   BEQ ZERO, ZERO, 0x9D002694
9D002770  00021400   SLL V0, V0, 16
9D002774  01224823   SUBU T1, T1, V0
9D002778  00484004   SLLV T0, T0, V0
9D00277C  00451804   SLLV V1, A1, V0
9D002780  00445004   SLLV T2, A0, V0
9D002784  01252806   SRLV A1, A1, T1
9D002788  00081402   SRL V0, T0, 16
9D00278C  00A2001B   DIVU A1, V0
9D002790  004001F4   TEQ V0, ZERO
9D002794  3106FFFF   ANDI A2, T0, -1
9D002798  01243806   SRLV A3, A0, T1
9D00279C  00E33825   OR A3, A3, V1
9D0027A0  00071C02   SRL V1, A3, 16
9D0027A4  00002812   MFLO A1
9D0027A8  00002010   MFHI A0
9D0027AC  00042400   SLL A0, A0, 16
9D0027B0  00832025   OR A0, A0, V1
9D0027B4  70C54802   MUL T1, A2, A1
9D0027B8  0089582B   SLTU T3, A0, T1
9D0027BC  1160000A   BEQ T3, ZERO, 0x9D0027E8
9D0027C0  00A01825   OR V1, A1, ZERO
9D0027C4  00882021   ADDU A0, A0, T0
9D0027C8  0088582B   SLTU T3, A0, T0
9D0027CC  15600006   BNE T3, ZERO, 0x9D0027E8
9D0027D0  24A3FFFF   ADDIU V1, A1, -1
9D0027D4  0089582B   SLTU T3, A0, T1
9D0027D8  51600004   BEQL T3, ZERO, 0x9D0027EC
9D0027DC  00892023   SUBU A0, A0, T1
9D0027E0  24A3FFFE   ADDIU V1, A1, -2
9D0027E4  00882021   ADDU A0, A0, T0
9D0027E8  00892023   SUBU A0, A0, T1
9D0027EC  0082001B   DIVU A0, V0
9D0027F0  004001F4   TEQ V0, ZERO
9D0027F4  30E5FFFF   ANDI A1, A3, -1
9D0027F8  00001012   MFLO V0
9D0027FC  00002010   MFHI A0
9D002800  00042400   SLL A0, A0, 16
9D002804  00852825   OR A1, A0, A1
9D002808  70C23002   MUL A2, A2, V0
9D00280C  00A6382B   SLTU A3, A1, A2
9D002810  10E0000A   BEQ A3, ZERO, 0x9D00283C
9D002814  00402025   OR A0, V0, ZERO
9D002818  00A82821   ADDU A1, A1, T0
9D00281C  00A8382B   SLTU A3, A1, T0
9D002820  14E00006   BNE A3, ZERO, 0x9D00283C
9D002824  2444FFFF   ADDIU A0, V0, -1
9D002828  00A6382B   SLTU A3, A1, A2
9D00282C  50E00004   BEQL A3, ZERO, 0x9D002840
9D002830  00031C00   SLL V1, V1, 16
9D002834  2444FFFE   ADDIU A0, V0, -2
9D002838  00A82821   ADDU A1, A1, T0
9D00283C  00031C00   SLL V1, V1, 16
9D002840  00A62823   SUBU A1, A1, A2
9D002844  1000FFA0   BEQ ZERO, ZERO, 0x9D0026C8
9D002848  00641825   OR V1, V1, A0
9D00284C  00A7102B   SLTU V0, A1, A3
9D002850  1440004F   BNE V0, ZERO, 0x9D002990
9D002854  00001825   OR V1, ZERO, ZERO
9D002858  70EA5020   CLZ T2, A3
9D00285C  15400008   BNE T2, ZERO, 0x9D002880
9D002860  24090020   ADDIU T1, ZERO, 32
9D002864  00E5282B   SLTU A1, A3, A1
9D002868  54A0004A   BNEL A1, ZERO, 0x9D002994
9D00286C  24020001   ADDIU V0, ZERO, 1
9D002870  0086102B   SLTU V0, A0, A2
9D002874  38420001   XORI V0, V0, 1
9D002878  03E00008   JR RA
9D00287C  00001825   OR V1, ZERO, ZERO
9D002880  012A4823   SUBU T1, T1, T2
9D002884  01261006   SRLV V0, A2, T1
9D002888  01473804   SLLV A3, A3, T2
9D00288C  00473825   OR A3, V0, A3
9D002890  00074402   SRL T0, A3, 16
9D002894  01451004   SLLV V0, A1, T2
9D002898  01252806   SRLV A1, A1, T1
9D00289C  00A8001B   DIVU A1, T0
9D0028A0  010001F4   TEQ T0, ZERO
9D0028A4  01246006   SRLV T4, A0, T1
9D0028A8  30EBFFFF   ANDI T3, A3, -1
9D0028AC  01826025   OR T4, T4, V0
9D0028B0  000C1C02   SRL V1, T4, 16
9D0028B4  01463004   SLLV A2, A2, T2
9D0028B8  00002812   MFLO A1
9D0028BC  00004810   MFHI T1
9D0028C0  00094C00   SLL T1, T1, 16
9D0028C4  01234825   OR T1, T1, V1
9D0028C8  71651002   MUL V0, T3, A1
9D0028CC  0122682B   SLTU T5, T1, V0
9D0028D0  11A0000A   BEQ T5, ZERO, 0x9D0028FC
9D0028D4  00A01825   OR V1, A1, ZERO
9D0028D8  01274821   ADDU T1, T1, A3
9D0028DC  0127682B   SLTU T5, T1, A3
9D0028E0  15A00006   BNE T5, ZERO, 0x9D0028FC
9D0028E4  24A3FFFF   ADDIU V1, A1, -1
9D0028E8  0122682B   SLTU T5, T1, V0
9D0028EC  51A00004   BEQL T5, ZERO, 0x9D002900
9D0028F0  01224823   SUBU T1, T1, V0
9D0028F4  24A3FFFE   ADDIU V1, A1, -2
9D0028F8  01274821   ADDU T1, T1, A3
9D0028FC  01224823   SUBU T1, T1, V0
9D002900  0128001B   DIVU T1, T0
9D002904  010001F4   TEQ T0, ZERO
9D002908  3185FFFF   ANDI A1, T4, -1
9D00290C  00004012   MFLO T0
9D002910  00004810   MFHI T1
9D002914  00094C00   SLL T1, T1, 16
9D002918  01252825   OR A1, T1, A1
9D00291C  71685802   MUL T3, T3, T0
9D002920  00AB102B   SLTU V0, A1, T3
9D002924  1040000A   BEQ V0, ZERO, 0x9D002950
9D002928  01004825   OR T1, T0, ZERO
9D00292C  00A72821   ADDU A1, A1, A3
9D002930  00A7102B   SLTU V0, A1, A3
9D002934  14400006   BNE V0, ZERO, 0x9D002950
9D002938  2509FFFF   ADDIU T1, T0, -1
9D00293C  00AB102B   SLTU V0, A1, T3
9D002940  10400004   BEQ V0, ZERO, 0x9D002954
9D002944  00031400   SLL V0, V1, 16
9D002948  2509FFFE   ADDIU T1, T0, -2
9D00294C  00A72821   ADDU A1, A1, A3
9D002950  00031400   SLL V0, V1, 16
9D002954  00491025   OR V0, V0, T1
9D002958  00460019   MULTU 0, V0, A2
9D00295C  00AB2823   SUBU A1, A1, T3
9D002960  00003810   MFHI A3
9D002964  00A7182B   SLTU V1, A1, A3
9D002968  14600007   BNE V1, ZERO, 0x9D002988
9D00296C  00003012   MFLO A2
9D002970  14A70008   BNE A1, A3, 0x9D002994
9D002974  00001825   OR V1, ZERO, ZERO
9D002978  01442004   SLLV A0, A0, T2
9D00297C  0086202B   SLTU A0, A0, A2
9D002980  10800004   BEQ A0, ZERO, 0x9D002994
9D002984  00000000   NOP
9D002988  1000FFBB   BEQ ZERO, ZERO, 0x9D002878
9D00298C  2442FFFF   ADDIU V0, V0, -1
9D002990  00001025   OR V0, ZERO, ZERO
9D002994  03E00008   JR RA
9D002998  00000000   NOP
9D004D10  10C00008   BEQ A2, ZERO, 0x9D004D34
9D004D14  00801025   OR V0, A0, ZERO
9D004D18  24030020   ADDIU V1, ZERO, 32
9D004D1C  00661823   SUBU V1, V1, A2
9D004D20  1C600006   BGTZ V1, 0x9D004D3C
9D004D24  00C52006   SRLV A0, A1, A2
9D004D28  00002025   OR A0, ZERO, ZERO
9D004D2C  00C51006   SRLV V0, A1, A2
9D004D30  00802825   OR A1, A0, ZERO
9D004D34  03E00008   JR RA
9D004D38  00A01825   OR V1, A1, ZERO
9D004D3C  00C21006   SRLV V0, V0, A2
9D004D40  00652804   SLLV A1, A1, V1
9D004D44  1000FFFA   BEQ ZERO, ZERO, 0x9D004D30
9D004D48  00451025   OR V0, V0, A1
9D004D4C  10C00008   BEQ A2, ZERO, 0x9D004D70
9D004D50  00801025   OR V0, A0, ZERO
9D004D54  24040020   ADDIU A0, ZERO, 32
9D004D58  00862023   SUBU A0, A0, A2
9D004D5C  5C800006   BGTZL A0, 0x9D004D78
9D004D60  00C21804   SLLV V1, V0, A2
9D004D64  00001825   OR V1, ZERO, ZERO
9D004D68  00C22804   SLLV A1, V0, A2
9D004D6C  00601025   OR V0, V1, ZERO
9D004D70  03E00008   JR RA
9D004D74  00A01825   OR V1, A1, ZERO
9D004D78  00C52804   SLLV A1, A1, A2
9D004D7C  00821006   SRLV V0, V0, A0
9D004D80  1000FFFA   BEQ ZERO, ZERO, 0x9D004D6C
9D004D84  00A22825   OR A1, A1, V0
---  /data01/build/bamboo/xml-data/build-dir/M32DEV-GMB34-JOB1/build-Linux/pic32m-libs/libpic32/stubs/write.c
-----*  Optimizer-Generated Procedural Abstractions  *----------------------------------------------
9D0043AC  27BDFFE0   ADDIU SP, SP, -32
9D0043B0  AFB10014   SW S1, 20(SP)
9D0043B4  AFBF001C   SW RA, 28(SP)
9D0043B8  AFB20018   SW S2, 24(SP)
9D0043BC  AFB00010   SW S0, 16(SP)
9D0043C0  10A0000D   BEQ A1, ZERO, 0x9D0043F8
9D0043C4  00008825   OR S1, ZERO, ZERO
9D0043C8  50C0000C   BEQL A2, ZERO, 0x9D0043FC
9D0043CC  8FBF001C   LW RA, 28(SP)
9D0043D0  2C840003   SLTIU A0, A0, 3
9D0043D4  10800008   BEQ A0, ZERO, 0x9D0043F8
9D0043D8  00C08825   OR S1, A2, ZERO
9D0043DC  3C020000   LUI V0, 0
9D0043E0  24420000   ADDIU V0, V0, 0
9D0043E4  1040000B   BEQ V0, ZERO, 0x9D004414
9D0043E8  00A08025   OR S0, A1, ZERO
9D0043EC  00C02825   OR A1, A2, ZERO
9D0043F0  0C000000   JAL 0x90000000
9D0043F4  02002025   OR A0, S0, ZERO
9D0043F8  8FBF001C   LW RA, 28(SP)
9D0043FC  02201025   OR V0, S1, ZERO
9D004400  8FB20018   LW S2, 24(SP)
9D004404  8FB10014   LW S1, 20(SP)
9D004408  8FB00010   LW S0, 16(SP)
9D00440C  03E00008   JR RA
9D004410  27BD0020   ADDIU SP, SP, 32
9D004414  00A69021   ADDU S2, A1, A2
9D004418  82040000   LB A0, 0(S0)
9D00441C  0F400DE1   JAL _mon_putc
9D004420  26100001   ADDIU S0, S0, 1
9D004424  5650FFFD   BNEL S2, S0, 0x9D00441C
9D004428  82040000   LB A0, 0(S0)
9D00442C  1000FFF3   BEQ ZERO, ZERO, 0x9D0043FC
9D004430  8FBF001C   LW RA, 28(SP)
---  /data01/build/bamboo/xml-data/build-dir/M32DEV-GMB34-JOB1/build-Linux/pic32m-libs/libpic32/stubs/sbrk.c
-----*  Optimizer-Generated Procedural Abstractions  *----------------------------------------------
9D0034EC  27BDFFD8   ADDIU SP, SP, -40
9D0034F0  AFB40020   SW S4, 32(SP)
9D0034F4  3C14A000   LUI S4, -24576
9D0034F8  8E8204F8   LW V0, 1272(S4)
9D0034FC  AFBF0024   SW RA, 36(SP)
9D003500  AFB3001C   SW S3, 28(SP)
9D003504  AFB20018   SW S2, 24(SP)
9D003508  AFB10014   SW S1, 20(SP)
9D00350C  1440002E   BNE V0, ZERO, 0x9D0035C8
9D003510  AFB00010   SW S0, 16(SP)
9D003514  3C12A000   LUI S2, -24576
9D003518  8E510500   LW S1, 1280(S2)
9D00351C  16200003   BNE S1, ZERO, 0x9D00352C
9D003520  3C13A000   LUI S3, -24576
9D003524  3C11A000   LUI S1, -24576
9D003528  26310510   ADDIU S1, S1, 1296
9D00352C  8E7004FC   LW S0, 1276(S3)
9D003530  16000006   BNE S0, ZERO, 0x9D00354C
9D003534  00111F82   SRL V1, S1, 30
9D003538  3C10A000   LUI S0, -24576
9D00353C  3C020000   LUI V0, 0
9D003540  26100510   ADDIU S0, S0, 1296
9D003544  24421400   ADDIU V0, V0, 5120
9D003548  02028021   ADDU S0, S0, V0
9D00354C  24020002   ADDIU V0, ZERO, 2
9D003550  50620001   BEQL V1, V0, 0x9D003558
9D003554  7E31E000   EXT S1, S1, 0, 29
9D003558  00101F82   SRL V1, S0, 30
9D00355C  24020002   ADDIU V0, ZERO, 2
9D003560  50620001   BEQL V1, V0, 0x9D003568
9D003564  7E10E000   EXT S0, S0, 0, 29
9D003568  0F401385   JAL _stub_sbd_memlayout
9D00356C  00000000   NOP
9D003570  8C430000   LW V1, 0(V0)
9D003574  8C420004   LW V0, 4(V0)
9D003578  0223202B   SLTU A0, S1, V1
9D00357C  14800004   BNE A0, ZERO, 0x9D003590
9D003580  00621021   ADDU V0, V1, V0
9D003584  0222202B   SLTU A0, S1, V0
9D003588  54800029   BNEL A0, ZERO, _sbrk_init::_sbrk_init
9D00358C  0211182B   SLTU V1, S0, S1
9D003590  3C04A000   LUI A0, -24576
9D003594  2484020C   ADDIU A0, A0, 524
9D003598  7C84E000   EXT A0, A0, 0, 29
9D00359C  0064202B   SLTU A0, V1, A0
9D0035A0  14800009   BNE A0, ZERO, 0x9D0035C8
9D0035A4  0203202B   SLTU A0, S0, V1
9D0035A8  14800005   BNE A0, ZERO, 0x9D0035C0
9D0035AC  0062202B   SLTU A0, V1, V0
9D0035B0  0202202B   SLTU A0, S0, V0
9D0035B4  5480000C   BNEL A0, ZERO, _sbrk_init::_sbrk_init
9D0035B8  02001025   OR V0, S0, ZERO
9D0035BC  0062202B   SLTU A0, V1, V0
9D0035C0  1480000A   BNE A0, ZERO, 0x9D0035EC
9D0035C4  3C04A000   LUI A0, -24576
9D0035C8  8FBF0024   LW RA, 36(SP)
9D0035CC  8FB40020   LW S4, 32(SP)
9D0035D0  8FB3001C   LW S3, 28(SP)
9D0035D4  8FB20018   LW S2, 24(SP)
9D0035D8  8FB10014   LW S1, 20(SP)
9D0035DC  8FB00010   LW S0, 16(SP)
9D0035E0  03E00008   JR RA
9D0035E4  27BD0028   ADDIU SP, SP, 40
9D0035E8  3C04A000   LUI A0, -24576
9D0035EC  2484020C   ADDIU A0, A0, 524
9D0035F0  00042742   SRL A0, A0, 29
9D0035F4  24050005   ADDIU A1, ZERO, 5
9D0035F8  14850009   BNE A0, A1, _sbrk_init::_sbrk_init
9D0035FC  24050004   ADDIU A1, ZERO, 4
9D003600  3C04A000   LUI A0, -24576
9D003604  00641825   OR V1, V1, A0
9D003608  00441025   OR V0, V0, A0
9D00360C  AE430500   SW V1, 1280(S2)
9D003610  AE6204FC   SW V0, 1276(S3)
9D003614  8E420500   LW V0, 1280(S2)
9D003618  1000FFEB   BEQ ZERO, ZERO, 0x9D0035C8
9D00361C  AE8204F8   SW V0, 1272(S4)
9D003620  5485FFFC   BNEL A0, A1, 0x9D003614
9D003624  AE420500   SW V0, 1280(S2)
9D003628  1000FFF6   BEQ ZERO, ZERO, 0x9D003604
9D00362C  3C048000   LUI A0, -32768
9D003630  1460FFED   BNE V1, ZERO, _sbrk_init::_sbrk_init
9D003634  02201825   OR V1, S1, ZERO
9D003638  1000FFDE   BEQ ZERO, ZERO, 0x9D0035B4
9D00363C  0202202B   SLTU A0, S0, V0
9D003FF8  27BDFFE0   ADDIU SP, SP, -32
9D003FFC  AFB00014   SW S0, 20(SP)
9D004000  3C10A000   LUI S0, -24576
9D004004  8E0204F8   LW V0, 1272(S0)
9D004008  AFB10018   SW S1, 24(SP)
9D00400C  AFBF001C   SW RA, 28(SP)
9D004010  1440000F   BNE V0, ZERO, 0x9D004050
9D004014  00808825   OR S1, A0, ZERO
9D004018  0F400D3B   JAL _sbrk_init
9D00401C  00000000   NOP
9D004020  8E0204F8   LW V0, 1272(S0)
9D004024  1440000B   BNE V0, ZERO, 0x9D004054
9D004028  00000000   NOP
9D00402C  3C02A000   LUI V0, -24576
9D004030  2403000C   ADDIU V1, ZERO, 12
9D004034  AC430508   SW V1, 1288(V0)
9D004038  2402FFFF   ADDIU V0, ZERO, -1
9D00403C  8FBF001C   LW RA, 28(SP)
9D004040  8FB10018   LW S1, 24(SP)
9D004044  8FB00014   LW S0, 20(SP)
9D004048  03E00008   JR RA
9D00404C  27BD0020   ADDIU SP, SP, 32
9D004050  8E0204F8   LW V0, 1272(S0)
9D004054  1A20000A   BLEZ S1, 0x9D004080
9D004058  00511821   ADDU V1, V0, S1
9D00405C  0062202B   SLTU A0, V1, V0
9D004060  1480FFF2   BNE A0, ZERO, 0x9D00402C
9D004064  3C04A000   LUI A0, -24576
9D004068  8C8404FC   LW A0, 1276(A0)
9D00406C  0083202B   SLTU A0, A0, V1
9D004070  5480FFEF   BNEL A0, ZERO, 0x9D004030
9D004074  3C02A000   LUI V0, -24576
9D004078  1000FFF0   BEQ ZERO, ZERO, 0x9D00403C
9D00407C  AE0304F8   SW V1, 1272(S0)
9D004080  0043202B   SLTU A0, V0, V1
9D004084  14800005   BNE A0, ZERO, 0x9D00409C
9D004088  3C04A000   LUI A0, -24576
9D00408C  8C840500   LW A0, 1280(A0)
9D004090  0064202B   SLTU A0, V1, A0
9D004094  5080FFE9   BEQL A0, ZERO, 0x9D00403C
9D004098  AE0304F8   SW V1, 1272(S0)
9D00409C  3C02A000   LUI V0, -24576
9D0040A0  1000FFE4   BEQ ZERO, ZERO, 0x9D004034
9D0040A4  24030016   ADDIU V1, ZERO, 22
9D004A7C  27BDFFE8   ADDIU SP, SP, -24
9D004A80  AFB00010   SW S0, 16(SP)
9D004A84  AFBF0014   SW RA, 20(SP)
9D004A88  0F400FFE   JAL _sbrk
9D004A8C  00808025   OR S0, A0, ZERO
9D004A90  1A000008   BLEZ S0, 0x9D004AB4
9D004A94  00401825   OR V1, V0, ZERO
9D004A98  2402FFFF   ADDIU V0, ZERO, -1
9D004A9C  10620005   BEQ V1, V0, 0x9D004AB4
9D004AA0  00602025   OR A0, V1, ZERO
9D004AA4  02003025   OR A2, S0, ZERO
9D004AA8  0F4013A2   JAL memset
9D004AAC  00002825   OR A1, ZERO, ZERO
9D004AB0  00401825   OR V1, V0, ZERO
9D004AB4  8FBF0014   LW RA, 20(SP)
9D004AB8  00601025   OR V0, V1, ZERO
9D004ABC  8FB00010   LW S0, 16(SP)
9D004AC0  03E00008   JR RA
9D004AC4  27BD0018   ADDIU SP, SP, 24
9D004E14  3C04A000   LUI A0, -24576
9D004E24  3C03A000   LUI V1, -24576
9D004E28  24630510   ADDIU V1, V1, 1296
9D004E2C  AC8304E0   SW V1, 1248(A0)
9D004E30  3C030000   LUI V1, 0
9D004E34  24631400   ADDIU V1, V1, 5120
9D004E38  03E00008   JR RA
9D004E3C  AC430004   SW V1, 4(V0)
9D0050A4  03E00008   JR RA
9D0050A8  24020080   ADDIU V0, ZERO, 128
---  /data01/build/bamboo/xml-data/build-dir/M32DEV-GMB34-JOB1/build-Linux/pic32m-libs/libpic32/stubs/lseek.c
-----*  Optimizer-Generated Procedural Abstractions  *----------------------------------------------
9D0050AC  03E00008   JR RA
9D0050B0  00001025   OR V0, ZERO, ZERO
---  /data01/build/bamboo/xml-data/build-dir/M32DEV-GMB34-JOB1/build-Linux/pic32m-libs/libpic32/stubs/default-on-reset.c
-----*  Optimizer-Generated Procedural Abstractions  *----------------------------------------------
9D00506C  03E00008   JR RA
9D005070  00000000   NOP
---  /data01/build/bamboo/xml-data/build-dir/M32DEV-GMB34-JOB1/build-Linux/pic32m-libs/libpic32/stubs/default-on-bootstrap.c
-----*  Optimizer-Generated Procedural Abstractions  *----------------------------------------------
9D005074  03E00008   JR RA
9D005078  00000000   NOP
---  /data01/build/bamboo/xml-data/build-dir/M32DEV-GMB34-JOB1/build-Linux/pic32m-libs/libpic32/stubs/default-general-exception-handler.c
-----*  Optimizer-Generated Procedural Abstractions  *----------------------------------------------
9D004B10  3C020000   LUI V0, 0
9D004B14  24420001   ADDIU V0, V0, 1
9D004B18  10400005   BEQ V0, ZERO, 0x9D004B30
9D004B1C  3C029D00   LUI V0, -25344
9D004B20  24425040   ADDIU V0, V0, 20544
9D004B24  10400003   BEQ V0, ZERO, 0x9D004B34
9D004B28  3C029D00   LUI V0, -25344
9D004B2C  7000003F   SDBBP 0
9D004B30  3C029D00   LUI V0, -25344
9D004B34  24424BA0   ADDIU V0, V0, 19360
9D004B38  10400005   BEQ V0, ZERO, 0x9D004B50
9D004B3C  00000000   NOP
9D004B40  27BDFFE8   ADDIU SP, SP, -24
9D004B44  AFBF0014   SW RA, 20(SP)
9D004B48  0040F809   JALR V0
9D004B4C  00000000   NOP
9D004B50  1000FFFF   BEQ ZERO, ZERO, 0x9D004B50
9D004B54  00000000   NOP
---  /data01/build/bamboo/xml-data/build-dir/M32DEV-GMB34-JOB1/build-Linux/pic32m-libs/libpic32/stubs/default-bootstrap-exception-handler.c
-----*  Optimizer-Generated Procedural Abstractions  *----------------------------------------------
9D004AC8  3C020000   LUI V0, 0
9D004ACC  24420001   ADDIU V0, V0, 1
9D004AD0  10400005   BEQ V0, ZERO, 0x9D004AE8
9D004AD4  3C029D00   LUI V0, -25344
9D004AD8  24425040   ADDIU V0, V0, 20544
9D004ADC  10400003   BEQ V0, ZERO, 0x9D004AEC
9D004AE0  3C029D00   LUI V0, -25344
9D004AE4  7000003F   SDBBP 0
9D004AE8  3C029D00   LUI V0, -25344
9D004AEC  24424BA0   ADDIU V0, V0, 19360
9D004AF0  10400005   BEQ V0, ZERO, 0x9D004B08
9D004AF4  00000000   NOP
9D004AF8  27BDFFE8   ADDIU SP, SP, -24
9D004AFC  AFBF0014   SW RA, 20(SP)
9D004B00  0040F809   JALR V0
9D004B04  00000000   NOP
9D004B08  1000FFFF   BEQ ZERO, ZERO, 0x9D004B08
9D004B0C  00000000   NOP
---  /data01/build/bamboo/xml-data/build-dir/M32DEV-GMB34-JOB1/build-Linux/pic32m-libs/libpic32/stubs/close.c
-----*  Optimizer-Generated Procedural Abstractions  *----------------------------------------------
9D0050B4  03E00008   JR RA
9D0050B8  00001025   OR V0, ZERO, ZERO
---  /data01/build/bamboo/xml-data/build-dir/M32DEV-GMB34-JOB1/build-Linux/pic32m-libs/libpic32/stubs/_mon_putc.c
-----*  Optimizer-Generated Procedural Abstractions  *----------------------------------------------
9D003784  3C02A000   LUI V0, -24576
9D003788  8C430200   LW V1, 512(V0)
9D00378C  14600013   BNE V1, ZERO, 0x9D0037DC
9D003790  00803025   OR A2, A0, ZERO
9D003794  3C020000   LUI V0, 0
9D003798  27BDFFE8   ADDIU SP, SP, -24
9D00379C  24420000   ADDIU V0, V0, 0
9D0037A0  10400006   BEQ V0, ZERO, 0x9D0037BC
9D0037A4  AFBF0014   SW RA, 20(SP)
9D0037A8  0C000000   JAL 0x90000000
9D0037AC  00000000   NOP
9D0037B0  8FBF0014   LW RA, 20(SP)
9D0037B4  03E00008   JR RA
9D0037B8  27BD0018   ADDIU SP, SP, 24
9D0037BC  3C020000   LUI V0, 0
9D0037C0  24420000   ADDIU V0, V0, 0
9D0037C4  10400025   BEQ V0, ZERO, 0x9D00385C
9D0037C8  3C05BF80   LUI A1, -16512
9D0037CC  0C000000   JAL 0x90000000
9D0037D0  00000000   NOP
9D0037D4  1000FFF7   BEQ ZERO, ZERO, 0x9D0037B4
9D0037D8  8FBF0014   LW RA, 20(SP)
9D0037DC  3C02BF80   LUI V0, -16512
9D0037E0  24426010   ADDIU V0, V0, 24592
9D0037E4  1040002F   BEQ V0, ZERO, 0x9D0038A4
9D0037E8  00000000   NOP
9D0037EC  24040001   ADDIU A0, ZERO, 1
9D0037F0  14640012   BNE V1, A0, 0x9D00383C
9D0037F4  3C03BF80   LUI V1, -16512
9D0037F8  3C03BF80   LUI V1, -16512
9D0037FC  3C04BF80   LUI A0, -16512
9D003800  3C05BF80   LUI A1, -16512
9D003804  24636020   ADDIU V1, V1, 24608
9D003808  24846018   ADDIU A0, A0, 24600
9D00380C  24A56008   ADDIU A1, A1, 24584
9D003810  34078000   ORI A3, ZERO, -32768
9D003814  ACA70000   SW A3, 0(A1)
9D003818  24050400   ADDIU A1, ZERO, 1024
9D00381C  AC850000   SW A1, 0(A0)
9D003820  8C440000   LW A0, 0(V0)
9D003824  30840100   ANDI A0, A0, 256
9D003828  1080FFFD   BEQ A0, ZERO, 0x9D003820
9D00382C  00000000   NOP
9D003830  AC660000   SW A2, 0(V1)
9D003834  03E00008   JR RA
9D003838  00000000   NOP
9D00383C  3C04BF80   LUI A0, -16512
9D003840  3C05BF80   LUI A1, -16512
9D003844  3C02BF80   LUI V0, -16512
9D003848  24636220   ADDIU V1, V1, 25120
9D00384C  24846218   ADDIU A0, A0, 25112
9D003850  24A56208   ADDIU A1, A1, 25096
9D003854  1000FFEE   BEQ ZERO, ZERO, 0x9D003810
9D003858  24426210   ADDIU V0, V0, 25104
9D00385C  24A56208   ADDIU A1, A1, 25096
9D003860  3C04BF80   LUI A0, -16512
9D003864  34078000   ORI A3, ZERO, -32768
9D003868  ACA70000   SW A3, 0(A1)
9D00386C  3C03BF80   LUI V1, -16512
9D003870  24846218   ADDIU A0, A0, 25112
9D003874  3C02BF80   LUI V0, -16512
9D003878  24050400   ADDIU A1, ZERO, 1024
9D00387C  24636220   ADDIU V1, V1, 25120
9D003880  24426210   ADDIU V0, V0, 25104
9D003884  AC850000   SW A1, 0(A0)
9D003888  8C440000   LW A0, 0(V0)
9D00388C  30840100   ANDI A0, A0, 256
9D003890  1080FFFD   BEQ A0, ZERO, 0x9D003888
9D003894  00000000   NOP
9D003898  AC660000   SW A2, 0(V1)
9D00389C  1000FFC5   BEQ ZERO, ZERO, 0x9D0037B4
9D0038A0  8FBF0014   LW RA, 20(SP)
9D0038A4  03E00008   JR RA
9D0038A8  00000000   NOP
---  /data01/build/bamboo/xml-data/build-dir/M32DEV-GMB34-JOB1/build-Linux/pic32m-libs/libpic32/startup/software-debug-break.c
-----*  Optimizer-Generated Procedural Abstractions  *----------------------------------------------
9D005040  7000003F   SDBBP 0
9D005044  03E00008   JR RA
9D005048  00000000   NOP
---  /data01/build/bamboo/xml-data/build-dir/M32DEV-GMB34-JOB1/build-Linux/pic32m-libs/libpic32/default_vector_dispatch/defaultinterrupt.c
-----*  Optimizer-Generated Procedural Abstractions  *----------------------------------------------
9D004B58  3C020000   LUI V0, 0
9D004B5C  24420001   ADDIU V0, V0, 1
9D004B60  10400007   BEQ V0, ZERO, 0x9D004B80
9D004B64  3C029D00   LUI V0, -25344
9D004B68  24425040   ADDIU V0, V0, 20544
9D004B6C  50400005   BEQL V0, ZERO, 0x9D004B84
9D004B70  3C029D00   LUI V0, -25344
9D004B74  7000003F   SDBBP 0
9D004B78  03E00008   JR RA
9D004B7C  00000000   NOP
9D004B80  3C029D00   LUI V0, -25344
9D004B84  24424BA0   ADDIU V0, V0, 19360
9D004B88  10400003   BEQ V0, ZERO, 0x9D004B98
9D004B8C  00000000   NOP
9D004B90  0040F809   JALR V0
9D004B94  00000000   NOP
9D004B98  03E00008   JR RA
9D004B9C  00000000   NOP
